
dist/rp:     file format elf64-x86-64


Disassembly of section .init:

0000000000402000 <.init>:
  402000:	48 83 ec 08          	sub    $0x8,%rsp
  402004:	48 8b 05 ed cf 00 00 	mov    0xcfed(%rip),%rax        # 40eff8 <dlerror@plt+0xcb38>
  40200b:	48 85 c0             	test   %rax,%rax
  40200e:	74 05                	je     402015 <getenv@plt-0x1b>
  402010:	e8 7b 02 00 00       	call   402290 <__gmon_start__@plt>
  402015:	48 83 c4 08          	add    $0x8,%rsp
  402019:	c3                   	ret    

Disassembly of section .plt:

0000000000402020 <getenv@plt-0x10>:
  402020:	ff 35 e2 cf 00 00    	push   0xcfe2(%rip)        # 40f008 <dlerror@plt+0xcb48>
  402026:	ff 25 e4 cf 00 00    	jmp    *0xcfe4(%rip)        # 40f010 <dlerror@plt+0xcb50>
  40202c:	0f 1f 40 00          	nopl   0x0(%rax)

0000000000402030 <getenv@plt>:
  402030:	ff 25 e2 cf 00 00    	jmp    *0xcfe2(%rip)        # 40f018 <dlerror@plt+0xcb58>
  402036:	68 00 00 00 00       	push   $0x0
  40203b:	e9 e0 ff ff ff       	jmp    402020 <getenv@plt-0x10>

0000000000402040 <__snprintf_chk@plt>:
  402040:	ff 25 da cf 00 00    	jmp    *0xcfda(%rip)        # 40f020 <dlerror@plt+0xcb60>
  402046:	68 01 00 00 00       	push   $0x1
  40204b:	e9 d0 ff ff ff       	jmp    402020 <getenv@plt-0x10>

0000000000402050 <raise@plt>:
  402050:	ff 25 d2 cf 00 00    	jmp    *0xcfd2(%rip)        # 40f028 <dlerror@plt+0xcb68>
  402056:	68 02 00 00 00       	push   $0x2
  40205b:	e9 c0 ff ff ff       	jmp    402020 <getenv@plt-0x10>

0000000000402060 <free@plt>:
  402060:	ff 25 ca cf 00 00    	jmp    *0xcfca(%rip)        # 40f030 <dlerror@plt+0xcb70>
  402066:	68 03 00 00 00       	push   $0x3
  40206b:	e9 b0 ff ff ff       	jmp    402020 <getenv@plt-0x10>

0000000000402070 <__errno_location@plt>:
  402070:	ff 25 c2 cf 00 00    	jmp    *0xcfc2(%rip)        # 40f038 <dlerror@plt+0xcb78>
  402076:	68 04 00 00 00       	push   $0x4
  40207b:	e9 a0 ff ff ff       	jmp    402020 <getenv@plt-0x10>

0000000000402080 <unlink@plt>:
  402080:	ff 25 ba cf 00 00    	jmp    *0xcfba(%rip)        # 40f040 <dlerror@plt+0xcb80>
  402086:	68 05 00 00 00       	push   $0x5
  40208b:	e9 90 ff ff ff       	jmp    402020 <getenv@plt-0x10>

0000000000402090 <strncpy@plt>:
  402090:	ff 25 b2 cf 00 00    	jmp    *0xcfb2(%rip)        # 40f048 <dlerror@plt+0xcb88>
  402096:	68 06 00 00 00       	push   $0x6
  40209b:	e9 80 ff ff ff       	jmp    402020 <getenv@plt-0x10>

00000000004020a0 <strncmp@plt>:
  4020a0:	ff 25 aa cf 00 00    	jmp    *0xcfaa(%rip)        # 40f050 <dlerror@plt+0xcb90>
  4020a6:	68 07 00 00 00       	push   $0x7
  4020ab:	e9 70 ff ff ff       	jmp    402020 <getenv@plt-0x10>

00000000004020b0 <strcpy@plt>:
  4020b0:	ff 25 a2 cf 00 00    	jmp    *0xcfa2(%rip)        # 40f058 <dlerror@plt+0xcb98>
  4020b6:	68 08 00 00 00       	push   $0x8
  4020bb:	e9 60 ff ff ff       	jmp    402020 <getenv@plt-0x10>

00000000004020c0 <ftello@plt>:
  4020c0:	ff 25 9a cf 00 00    	jmp    *0xcf9a(%rip)        # 40f060 <dlerror@plt+0xcba0>
  4020c6:	68 09 00 00 00       	push   $0x9
  4020cb:	e9 50 ff ff ff       	jmp    402020 <getenv@plt-0x10>

00000000004020d0 <inflate@plt>:
  4020d0:	ff 25 92 cf 00 00    	jmp    *0xcf92(%rip)        # 40f068 <dlerror@plt+0xcba8>
  4020d6:	68 0a 00 00 00       	push   $0xa
  4020db:	e9 40 ff ff ff       	jmp    402020 <getenv@plt-0x10>

00000000004020e0 <mkdir@plt>:
  4020e0:	ff 25 8a cf 00 00    	jmp    *0xcf8a(%rip)        # 40f070 <dlerror@plt+0xcbb0>
  4020e6:	68 0b 00 00 00       	push   $0xb
  4020eb:	e9 30 ff ff ff       	jmp    402020 <getenv@plt-0x10>

00000000004020f0 <ferror@plt>:
  4020f0:	ff 25 82 cf 00 00    	jmp    *0xcf82(%rip)        # 40f078 <dlerror@plt+0xcbb8>
  4020f6:	68 0c 00 00 00       	push   $0xc
  4020fb:	e9 20 ff ff ff       	jmp    402020 <getenv@plt-0x10>

0000000000402100 <fread@plt>:
  402100:	ff 25 7a cf 00 00    	jmp    *0xcf7a(%rip)        # 40f080 <dlerror@plt+0xcbc0>
  402106:	68 0d 00 00 00       	push   $0xd
  40210b:	e9 10 ff ff ff       	jmp    402020 <getenv@plt-0x10>

0000000000402110 <mbstowcs@plt>:
  402110:	ff 25 72 cf 00 00    	jmp    *0xcf72(%rip)        # 40f088 <dlerror@plt+0xcbc8>
  402116:	68 0e 00 00 00       	push   $0xe
  40211b:	e9 00 ff ff ff       	jmp    402020 <getenv@plt-0x10>

0000000000402120 <readlink@plt>:
  402120:	ff 25 6a cf 00 00    	jmp    *0xcf6a(%rip)        # 40f090 <dlerror@plt+0xcbd0>
  402126:	68 0f 00 00 00       	push   $0xf
  40212b:	e9 f0 fe ff ff       	jmp    402020 <getenv@plt-0x10>

0000000000402130 <setenv@plt>:
  402130:	ff 25 62 cf 00 00    	jmp    *0xcf62(%rip)        # 40f098 <dlerror@plt+0xcbd8>
  402136:	68 10 00 00 00       	push   $0x10
  40213b:	e9 e0 fe ff ff       	jmp    402020 <getenv@plt-0x10>

0000000000402140 <getpid@plt>:
  402140:	ff 25 5a cf 00 00    	jmp    *0xcf5a(%rip)        # 40f0a0 <dlerror@plt+0xcbe0>
  402146:	68 11 00 00 00       	push   $0x11
  40214b:	e9 d0 fe ff ff       	jmp    402020 <getenv@plt-0x10>

0000000000402150 <fclose@plt>:
  402150:	ff 25 52 cf 00 00    	jmp    *0xcf52(%rip)        # 40f0a8 <dlerror@plt+0xcbe8>
  402156:	68 12 00 00 00       	push   $0x12
  40215b:	e9 c0 fe ff ff       	jmp    402020 <getenv@plt-0x10>

0000000000402160 <opendir@plt>:
  402160:	ff 25 4a cf 00 00    	jmp    *0xcf4a(%rip)        # 40f0b0 <dlerror@plt+0xcbf0>
  402166:	68 13 00 00 00       	push   $0x13
  40216b:	e9 b0 fe ff ff       	jmp    402020 <getenv@plt-0x10>

0000000000402170 <rmdir@plt>:
  402170:	ff 25 42 cf 00 00    	jmp    *0xcf42(%rip)        # 40f0b8 <dlerror@plt+0xcbf8>
  402176:	68 14 00 00 00       	push   $0x14
  40217b:	e9 a0 fe ff ff       	jmp    402020 <getenv@plt-0x10>

0000000000402180 <strlen@plt>:
  402180:	ff 25 3a cf 00 00    	jmp    *0xcf3a(%rip)        # 40f0c0 <dlerror@plt+0xcc00>
  402186:	68 15 00 00 00       	push   $0x15
  40218b:	e9 90 fe ff ff       	jmp    402020 <getenv@plt-0x10>

0000000000402190 <__lxstat@plt>:
  402190:	ff 25 32 cf 00 00    	jmp    *0xcf32(%rip)        # 40f0c8 <dlerror@plt+0xcc08>
  402196:	68 16 00 00 00       	push   $0x16
  40219b:	e9 80 fe ff ff       	jmp    402020 <getenv@plt-0x10>

00000000004021a0 <strchr@plt>:
  4021a0:	ff 25 2a cf 00 00    	jmp    *0xcf2a(%rip)        # 40f0d0 <dlerror@plt+0xcc10>
  4021a6:	68 17 00 00 00       	push   $0x17
  4021ab:	e9 70 fe ff ff       	jmp    402020 <getenv@plt-0x10>

00000000004021b0 <symlink@plt>:
  4021b0:	ff 25 22 cf 00 00    	jmp    *0xcf22(%rip)        # 40f0d8 <dlerror@plt+0xcc18>
  4021b6:	68 18 00 00 00       	push   $0x18
  4021bb:	e9 60 fe ff ff       	jmp    402020 <getenv@plt-0x10>

00000000004021c0 <snprintf@plt>:
  4021c0:	ff 25 1a cf 00 00    	jmp    *0xcf1a(%rip)        # 40f0e0 <dlerror@plt+0xcc20>
  4021c6:	68 19 00 00 00       	push   $0x19
  4021cb:	e9 50 fe ff ff       	jmp    402020 <getenv@plt-0x10>

00000000004021d0 <dirname@plt>:
  4021d0:	ff 25 12 cf 00 00    	jmp    *0xcf12(%rip)        # 40f0e8 <dlerror@plt+0xcc28>
  4021d6:	68 1a 00 00 00       	push   $0x1a
  4021db:	e9 40 fe ff ff       	jmp    402020 <getenv@plt-0x10>

00000000004021e0 <fputs@plt>:
  4021e0:	ff 25 0a cf 00 00    	jmp    *0xcf0a(%rip)        # 40f0f0 <dlerror@plt+0xcc30>
  4021e6:	68 1b 00 00 00       	push   $0x1b
  4021eb:	e9 30 fe ff ff       	jmp    402020 <getenv@plt-0x10>

00000000004021f0 <strncat@plt>:
  4021f0:	ff 25 02 cf 00 00    	jmp    *0xcf02(%rip)        # 40f0f8 <dlerror@plt+0xcc38>
  4021f6:	68 1c 00 00 00       	push   $0x1c
  4021fb:	e9 20 fe ff ff       	jmp    402020 <getenv@plt-0x10>

0000000000402200 <__realpath_chk@plt>:
  402200:	ff 25 fa ce 00 00    	jmp    *0xcefa(%rip)        # 40f100 <dlerror@plt+0xcc40>
  402206:	68 1d 00 00 00       	push   $0x1d
  40220b:	e9 10 fe ff ff       	jmp    402020 <getenv@plt-0x10>

0000000000402210 <closedir@plt>:
  402210:	ff 25 f2 ce 00 00    	jmp    *0xcef2(%rip)        # 40f108 <dlerror@plt+0xcc48>
  402216:	68 1e 00 00 00       	push   $0x1e
  40221b:	e9 00 fe ff ff       	jmp    402020 <getenv@plt-0x10>

0000000000402220 <__strdup@plt>:
  402220:	ff 25 ea ce 00 00    	jmp    *0xceea(%rip)        # 40f110 <dlerror@plt+0xcc50>
  402226:	68 1f 00 00 00       	push   $0x1f
  40222b:	e9 f0 fd ff ff       	jmp    402020 <getenv@plt-0x10>

0000000000402230 <__libc_start_main@plt>:
  402230:	ff 25 e2 ce 00 00    	jmp    *0xcee2(%rip)        # 40f118 <dlerror@plt+0xcc58>
  402236:	68 20 00 00 00       	push   $0x20
  40223b:	e9 e0 fd ff ff       	jmp    402020 <getenv@plt-0x10>

0000000000402240 <memcmp@plt>:
  402240:	ff 25 da ce 00 00    	jmp    *0xceda(%rip)        # 40f120 <dlerror@plt+0xcc60>
  402246:	68 21 00 00 00       	push   $0x21
  40224b:	e9 d0 fd ff ff       	jmp    402020 <getenv@plt-0x10>

0000000000402250 <calloc@plt>:
  402250:	ff 25 d2 ce 00 00    	jmp    *0xced2(%rip)        # 40f128 <dlerror@plt+0xcc68>
  402256:	68 22 00 00 00       	push   $0x22
  40225b:	e9 c0 fd ff ff       	jmp    402020 <getenv@plt-0x10>

0000000000402260 <strcmp@plt>:
  402260:	ff 25 ca ce 00 00    	jmp    *0xceca(%rip)        # 40f130 <dlerror@plt+0xcc70>
  402266:	68 23 00 00 00       	push   $0x23
  40226b:	e9 b0 fd ff ff       	jmp    402020 <getenv@plt-0x10>

0000000000402270 <signal@plt>:
  402270:	ff 25 c2 ce 00 00    	jmp    *0xcec2(%rip)        # 40f138 <dlerror@plt+0xcc78>
  402276:	68 24 00 00 00       	push   $0x24
  40227b:	e9 a0 fd ff ff       	jmp    402020 <getenv@plt-0x10>

0000000000402280 <feof@plt>:
  402280:	ff 25 ba ce 00 00    	jmp    *0xceba(%rip)        # 40f140 <dlerror@plt+0xcc80>
  402286:	68 25 00 00 00       	push   $0x25
  40228b:	e9 90 fd ff ff       	jmp    402020 <getenv@plt-0x10>

0000000000402290 <__gmon_start__@plt>:
  402290:	ff 25 b2 ce 00 00    	jmp    *0xceb2(%rip)        # 40f148 <dlerror@plt+0xcc88>
  402296:	68 26 00 00 00       	push   $0x26
  40229b:	e9 80 fd ff ff       	jmp    402020 <getenv@plt-0x10>

00000000004022a0 <clearerr@plt>:
  4022a0:	ff 25 aa ce 00 00    	jmp    *0xceaa(%rip)        # 40f150 <dlerror@plt+0xcc90>
  4022a6:	68 27 00 00 00       	push   $0x27
  4022ab:	e9 70 fd ff ff       	jmp    402020 <getenv@plt-0x10>

00000000004022b0 <realpath@plt>:
  4022b0:	ff 25 a2 ce 00 00    	jmp    *0xcea2(%rip)        # 40f158 <dlerror@plt+0xcc98>
  4022b6:	68 28 00 00 00       	push   $0x28
  4022bb:	e9 60 fd ff ff       	jmp    402020 <getenv@plt-0x10>

00000000004022c0 <memcpy@plt>:
  4022c0:	ff 25 9a ce 00 00    	jmp    *0xce9a(%rip)        # 40f160 <dlerror@plt+0xcca0>
  4022c6:	68 29 00 00 00       	push   $0x29
  4022cb:	e9 50 fd ff ff       	jmp    402020 <getenv@plt-0x10>

00000000004022d0 <prctl@plt>:
  4022d0:	ff 25 92 ce 00 00    	jmp    *0xce92(%rip)        # 40f168 <dlerror@plt+0xcca8>
  4022d6:	68 2a 00 00 00       	push   $0x2a
  4022db:	e9 40 fd ff ff       	jmp    402020 <getenv@plt-0x10>

00000000004022e0 <inflateEnd@plt>:
  4022e0:	ff 25 8a ce 00 00    	jmp    *0xce8a(%rip)        # 40f170 <dlerror@plt+0xccb0>
  4022e6:	68 2b 00 00 00       	push   $0x2b
  4022eb:	e9 30 fd ff ff       	jmp    402020 <getenv@plt-0x10>

00000000004022f0 <kill@plt>:
  4022f0:	ff 25 82 ce 00 00    	jmp    *0xce82(%rip)        # 40f178 <dlerror@plt+0xccb8>
  4022f6:	68 2c 00 00 00       	push   $0x2c
  4022fb:	e9 20 fd ff ff       	jmp    402020 <getenv@plt-0x10>

0000000000402300 <__xpg_basename@plt>:
  402300:	ff 25 7a ce 00 00    	jmp    *0xce7a(%rip)        # 40f180 <dlerror@plt+0xccc0>
  402306:	68 2d 00 00 00       	push   $0x2d
  40230b:	e9 10 fd ff ff       	jmp    402020 <getenv@plt-0x10>

0000000000402310 <fileno@plt>:
  402310:	ff 25 72 ce 00 00    	jmp    *0xce72(%rip)        # 40f188 <dlerror@plt+0xccc8>
  402316:	68 2e 00 00 00       	push   $0x2e
  40231b:	e9 00 fd ff ff       	jmp    402020 <getenv@plt-0x10>

0000000000402320 <__xstat@plt>:
  402320:	ff 25 6a ce 00 00    	jmp    *0xce6a(%rip)        # 40f190 <dlerror@plt+0xccd0>
  402326:	68 2f 00 00 00       	push   $0x2f
  40232b:	e9 f0 fc ff ff       	jmp    402020 <getenv@plt-0x10>

0000000000402330 <readdir@plt>:
  402330:	ff 25 62 ce 00 00    	jmp    *0xce62(%rip)        # 40f198 <dlerror@plt+0xccd8>
  402336:	68 30 00 00 00       	push   $0x30
  40233b:	e9 e0 fc ff ff       	jmp    402020 <getenv@plt-0x10>

0000000000402340 <dlopen@plt>:
  402340:	ff 25 5a ce 00 00    	jmp    *0xce5a(%rip)        # 40f1a0 <dlerror@plt+0xcce0>
  402346:	68 31 00 00 00       	push   $0x31
  40234b:	e9 d0 fc ff ff       	jmp    402020 <getenv@plt-0x10>

0000000000402350 <malloc@plt>:
  402350:	ff 25 52 ce 00 00    	jmp    *0xce52(%rip)        # 40f1a8 <dlerror@plt+0xcce8>
  402356:	68 32 00 00 00       	push   $0x32
  40235b:	e9 c0 fc ff ff       	jmp    402020 <getenv@plt-0x10>

0000000000402360 <fflush@plt>:
  402360:	ff 25 4a ce 00 00    	jmp    *0xce4a(%rip)        # 40f1b0 <dlerror@plt+0xccf0>
  402366:	68 33 00 00 00       	push   $0x33
  40236b:	e9 b0 fc ff ff       	jmp    402020 <getenv@plt-0x10>

0000000000402370 <__isoc99_sscanf@plt>:
  402370:	ff 25 42 ce 00 00    	jmp    *0xce42(%rip)        # 40f1b8 <dlerror@plt+0xccf8>
  402376:	68 34 00 00 00       	push   $0x34
  40237b:	e9 a0 fc ff ff       	jmp    402020 <getenv@plt-0x10>

0000000000402380 <wcsdup@plt>:
  402380:	ff 25 3a ce 00 00    	jmp    *0xce3a(%rip)        # 40f1c0 <dlerror@plt+0xcd00>
  402386:	68 35 00 00 00       	push   $0x35
  40238b:	e9 90 fc ff ff       	jmp    402020 <getenv@plt-0x10>

0000000000402390 <__vsnprintf_chk@plt>:
  402390:	ff 25 32 ce 00 00    	jmp    *0xce32(%rip)        # 40f1c8 <dlerror@plt+0xcd08>
  402396:	68 36 00 00 00       	push   $0x36
  40239b:	e9 80 fc ff ff       	jmp    402020 <getenv@plt-0x10>

00000000004023a0 <dlclose@plt>:
  4023a0:	ff 25 2a ce 00 00    	jmp    *0xce2a(%rip)        # 40f1d0 <dlerror@plt+0xcd10>
  4023a6:	68 37 00 00 00       	push   $0x37
  4023ab:	e9 70 fc ff ff       	jmp    402020 <getenv@plt-0x10>

00000000004023b0 <realloc@plt>:
  4023b0:	ff 25 22 ce 00 00    	jmp    *0xce22(%rip)        # 40f1d8 <dlerror@plt+0xcd18>
  4023b6:	68 38 00 00 00       	push   $0x38
  4023bb:	e9 60 fc ff ff       	jmp    402020 <getenv@plt-0x10>

00000000004023c0 <mkdtemp@plt>:
  4023c0:	ff 25 1a ce 00 00    	jmp    *0xce1a(%rip)        # 40f1e0 <dlerror@plt+0xcd20>
  4023c6:	68 39 00 00 00       	push   $0x39
  4023cb:	e9 50 fc ff ff       	jmp    402020 <getenv@plt-0x10>

00000000004023d0 <fchmod@plt>:
  4023d0:	ff 25 12 ce 00 00    	jmp    *0xce12(%rip)        # 40f1e8 <dlerror@plt+0xcd28>
  4023d6:	68 3a 00 00 00       	push   $0x3a
  4023db:	e9 40 fc ff ff       	jmp    402020 <getenv@plt-0x10>

00000000004023e0 <inflateInit_@plt>:
  4023e0:	ff 25 0a ce 00 00    	jmp    *0xce0a(%rip)        # 40f1f0 <dlerror@plt+0xcd30>
  4023e6:	68 3b 00 00 00       	push   $0x3b
  4023eb:	e9 30 fc ff ff       	jmp    402020 <getenv@plt-0x10>

00000000004023f0 <__fread_chk@plt>:
  4023f0:	ff 25 02 ce 00 00    	jmp    *0xce02(%rip)        # 40f1f8 <dlerror@plt+0xcd38>
  4023f6:	68 3c 00 00 00       	push   $0x3c
  4023fb:	e9 20 fc ff ff       	jmp    402020 <getenv@plt-0x10>

0000000000402400 <waitpid@plt>:
  402400:	ff 25 fa cd 00 00    	jmp    *0xcdfa(%rip)        # 40f200 <dlerror@plt+0xcd40>
  402406:	68 3d 00 00 00       	push   $0x3d
  40240b:	e9 10 fc ff ff       	jmp    402020 <getenv@plt-0x10>

0000000000402410 <fseeko@plt>:
  402410:	ff 25 f2 cd 00 00    	jmp    *0xcdf2(%rip)        # 40f208 <dlerror@plt+0xcd48>
  402416:	68 3e 00 00 00       	push   $0x3e
  40241b:	e9 00 fc ff ff       	jmp    402020 <getenv@plt-0x10>

0000000000402420 <fopen@plt>:
  402420:	ff 25 ea cd 00 00    	jmp    *0xcdea(%rip)        # 40f210 <dlerror@plt+0xcd50>
  402426:	68 3f 00 00 00       	push   $0x3f
  40242b:	e9 f0 fb ff ff       	jmp    402020 <getenv@plt-0x10>

0000000000402430 <strtok@plt>:
  402430:	ff 25 e2 cd 00 00    	jmp    *0xcde2(%rip)        # 40f218 <dlerror@plt+0xcd58>
  402436:	68 40 00 00 00       	push   $0x40
  40243b:	e9 e0 fb ff ff       	jmp    402020 <getenv@plt-0x10>

0000000000402440 <unsetenv@plt>:
  402440:	ff 25 da cd 00 00    	jmp    *0xcdda(%rip)        # 40f220 <dlerror@plt+0xcd60>
  402446:	68 41 00 00 00       	push   $0x41
  40244b:	e9 d0 fb ff ff       	jmp    402020 <getenv@plt-0x10>

0000000000402450 <strtoul@plt>:
  402450:	ff 25 d2 cd 00 00    	jmp    *0xcdd2(%rip)        # 40f228 <dlerror@plt+0xcd68>
  402456:	68 42 00 00 00       	push   $0x42
  40245b:	e9 c0 fb ff ff       	jmp    402020 <getenv@plt-0x10>

0000000000402460 <execvp@plt>:
  402460:	ff 25 ca cd 00 00    	jmp    *0xcdca(%rip)        # 40f230 <dlerror@plt+0xcd70>
  402466:	68 43 00 00 00       	push   $0x43
  40246b:	e9 b0 fb ff ff       	jmp    402020 <getenv@plt-0x10>

0000000000402470 <exit@plt>:
  402470:	ff 25 c2 cd 00 00    	jmp    *0xcdc2(%rip)        # 40f238 <dlerror@plt+0xcd78>
  402476:	68 44 00 00 00       	push   $0x44
  40247b:	e9 a0 fb ff ff       	jmp    402020 <getenv@plt-0x10>

0000000000402480 <fwrite@plt>:
  402480:	ff 25 ba cd 00 00    	jmp    *0xcdba(%rip)        # 40f240 <dlerror@plt+0xcd80>
  402486:	68 45 00 00 00       	push   $0x45
  40248b:	e9 90 fb ff ff       	jmp    402020 <getenv@plt-0x10>

0000000000402490 <strerror@plt>:
  402490:	ff 25 b2 cd 00 00    	jmp    *0xcdb2(%rip)        # 40f248 <dlerror@plt+0xcd88>
  402496:	68 46 00 00 00       	push   $0x46
  40249b:	e9 80 fb ff ff       	jmp    402020 <getenv@plt-0x10>

00000000004024a0 <dlsym@plt>:
  4024a0:	ff 25 aa cd 00 00    	jmp    *0xcdaa(%rip)        # 40f250 <dlerror@plt+0xcd90>
  4024a6:	68 47 00 00 00       	push   $0x47
  4024ab:	e9 70 fb ff ff       	jmp    402020 <getenv@plt-0x10>

00000000004024b0 <fork@plt>:
  4024b0:	ff 25 a2 cd 00 00    	jmp    *0xcda2(%rip)        # 40f258 <dlerror@plt+0xcd98>
  4024b6:	68 48 00 00 00       	push   $0x48
  4024bb:	e9 60 fb ff ff       	jmp    402020 <getenv@plt-0x10>

00000000004024c0 <dlerror@plt>:
  4024c0:	ff 25 9a cd 00 00    	jmp    *0xcd9a(%rip)        # 40f260 <dlerror@plt+0xcda0>
  4024c6:	68 49 00 00 00       	push   $0x49
  4024cb:	e9 50 fb ff ff       	jmp    402020 <getenv@plt-0x10>

Disassembly of section .text:

00000000004024d0 <.text>:
  4024d0:	41 89 f8             	mov    %edi,%r8d
  4024d3:	48 8b 3d 96 cd 00 00 	mov    0xcd96(%rip),%rdi        # 40f270 <dlerror@plt+0xcdb0>
  4024da:	44 89 07             	mov    %r8d,(%rdi)
  4024dd:	48 89 77 08          	mov    %rsi,0x8(%rdi)
  4024e1:	e9 6a 15 00 00       	jmp    403a50 <dlerror@plt+0x1590>
  4024e6:	31 ed                	xor    %ebp,%ebp
  4024e8:	49 89 d1             	mov    %rdx,%r9
  4024eb:	5e                   	pop    %rsi
  4024ec:	48 89 e2             	mov    %rsp,%rdx
  4024ef:	48 83 e4 f0          	and    $0xfffffffffffffff0,%rsp
  4024f3:	50                   	push   %rax
  4024f4:	54                   	push   %rsp
  4024f5:	49 c7 c0 b0 86 40 00 	mov    $0x4086b0,%r8
  4024fc:	48 c7 c1 40 86 40 00 	mov    $0x408640,%rcx
  402503:	48 c7 c7 d0 24 40 00 	mov    $0x4024d0,%rdi
  40250a:	e8 21 fd ff ff       	call   402230 <__libc_start_main@plt>
  40250f:	f4                   	hlt    
  402510:	b8 78 f2 40 00       	mov    $0x40f278,%eax
  402515:	48 3d 78 f2 40 00    	cmp    $0x40f278,%rax
  40251b:	74 13                	je     402530 <dlerror@plt+0x70>
  40251d:	b8 00 00 00 00       	mov    $0x0,%eax
  402522:	48 85 c0             	test   %rax,%rax
  402525:	74 09                	je     402530 <dlerror@plt+0x70>
  402527:	bf 78 f2 40 00       	mov    $0x40f278,%edi
  40252c:	ff e0                	jmp    *%rax
  40252e:	66 90                	xchg   %ax,%ax
  402530:	c3                   	ret    
  402531:	66 66 2e 0f 1f 84 00 	data16 cs nopw 0x0(%rax,%rax,1)
  402538:	00 00 00 00 
  40253c:	0f 1f 40 00          	nopl   0x0(%rax)
  402540:	be 78 f2 40 00       	mov    $0x40f278,%esi
  402545:	48 81 ee 78 f2 40 00 	sub    $0x40f278,%rsi
  40254c:	48 89 f0             	mov    %rsi,%rax
  40254f:	48 c1 ee 3f          	shr    $0x3f,%rsi
  402553:	48 c1 f8 03          	sar    $0x3,%rax
  402557:	48 01 c6             	add    %rax,%rsi
  40255a:	48 d1 fe             	sar    %rsi
  40255d:	74 11                	je     402570 <dlerror@plt+0xb0>
  40255f:	b8 00 00 00 00       	mov    $0x0,%eax
  402564:	48 85 c0             	test   %rax,%rax
  402567:	74 07                	je     402570 <dlerror@plt+0xb0>
  402569:	bf 78 f2 40 00       	mov    $0x40f278,%edi
  40256e:	ff e0                	jmp    *%rax
  402570:	c3                   	ret    
  402571:	66 66 2e 0f 1f 84 00 	data16 cs nopw 0x0(%rax,%rax,1)
  402578:	00 00 00 00 
  40257c:	0f 1f 40 00          	nopl   0x0(%rax)
  402580:	80 3d 09 cd 00 00 00 	cmpb   $0x0,0xcd09(%rip)        # 40f290 <stderr@GLIBC_2.2.5+0x8>
  402587:	75 17                	jne    4025a0 <dlerror@plt+0xe0>
  402589:	55                   	push   %rbp
  40258a:	48 89 e5             	mov    %rsp,%rbp
  40258d:	e8 7e ff ff ff       	call   402510 <dlerror@plt+0x50>
  402592:	c6 05 f7 cc 00 00 01 	movb   $0x1,0xccf7(%rip)        # 40f290 <stderr@GLIBC_2.2.5+0x8>
  402599:	5d                   	pop    %rbp
  40259a:	c3                   	ret    
  40259b:	0f 1f 44 00 00       	nopl   0x0(%rax,%rax,1)
  4025a0:	c3                   	ret    
  4025a1:	66 66 2e 0f 1f 84 00 	data16 cs nopw 0x0(%rax,%rax,1)
  4025a8:	00 00 00 00 
  4025ac:	0f 1f 40 00          	nopl   0x0(%rax)
  4025b0:	eb 8e                	jmp    402540 <dlerror@plt+0x80>
  4025b2:	66 2e 0f 1f 84 00 00 	cs nopw 0x0(%rax,%rax,1)
  4025b9:	00 00 00 
  4025bc:	0f 1f 40 00          	nopl   0x0(%rax)
  4025c0:	41 57                	push   %r15
  4025c2:	41 56                	push   %r14
  4025c4:	41 55                	push   %r13
  4025c6:	41 54                	push   %r12
  4025c8:	55                   	push   %rbp
  4025c9:	53                   	push   %rbx
  4025ca:	48 89 fb             	mov    %rdi,%rbx
  4025cd:	48 81 ec a8 00 00 00 	sub    $0xa8,%rsp
  4025d4:	48 89 74 24 08       	mov    %rsi,0x8(%rsp)
  4025d9:	48 8d 7c 24 30       	lea    0x30(%rsp),%rdi
  4025de:	be 10 90 40 00       	mov    $0x409010,%esi
  4025e3:	48 89 54 24 10       	mov    %rdx,0x10(%rsp)
  4025e8:	ba 70 00 00 00       	mov    $0x70,%edx
  4025ed:	48 89 4c 24 18       	mov    %rcx,0x18(%rsp)
  4025f2:	48 c7 44 24 70 00 00 	movq   $0x0,0x70(%rsp)
  4025f9:	00 00 
  4025fb:	48 c7 44 24 78 00 00 	movq   $0x0,0x78(%rsp)
  402602:	00 00 
  402604:	48 c7 84 24 80 00 00 	movq   $0x0,0x80(%rsp)
  40260b:	00 00 00 00 00 
  402610:	c7 44 24 38 00 00 00 	movl   $0x0,0x38(%rsp)
  402617:	00 
  402618:	48 c7 44 24 30 00 00 	movq   $0x0,0x30(%rsp)
  40261f:	00 00 
  402621:	e8 ba fd ff ff       	call   4023e0 <inflateInit_@plt>
  402626:	41 89 c4             	mov    %eax,%r12d
  402629:	85 c0                	test   %eax,%eax
  40262b:	0f 85 60 02 00 00    	jne    402891 <dlerror@plt+0x3d1>
  402631:	bf 00 20 00 00       	mov    $0x2000,%edi
  402636:	e8 15 fd ff ff       	call   402350 <malloc@plt>
  40263b:	48 89 c5             	mov    %rax,%rbp
  40263e:	48 85 c0             	test   %rax,%rax
  402641:	0f 84 a8 02 00 00    	je     4028ef <dlerror@plt+0x42f>
  402647:	bf 00 20 00 00       	mov    $0x2000,%edi
  40264c:	e8 ff fc ff ff       	call   402350 <malloc@plt>
  402651:	49 89 c5             	mov    %rax,%r13
  402654:	48 85 c0             	test   %rax,%rax
  402657:	0f 84 6c 02 00 00    	je     4028c9 <dlerror@plt+0x409>
  40265d:	48 8b 44 24 08       	mov    0x8(%rsp),%rax
  402662:	44 8b 78 08          	mov    0x8(%rax),%r15d
  402666:	49 89 d8             	mov    %rbx,%r8
  402669:	ba 01 00 00 00       	mov    $0x1,%edx
  40266e:	be 00 20 00 00       	mov    $0x2000,%esi
  402673:	48 89 ef             	mov    %rbp,%rdi
  402676:	49 81 ff 00 20 00 00 	cmp    $0x2000,%r15
  40267d:	41 be 00 20 00 00    	mov    $0x2000,%r14d
  402683:	4d 0f 46 f7          	cmovbe %r15,%r14
  402687:	4c 89 f1             	mov    %r14,%rcx
  40268a:	e8 61 fd ff ff       	call   4023f0 <__fread_chk@plt>
  40268f:	49 39 c6             	cmp    %rax,%r14
  402692:	0f 85 e0 01 00 00    	jne    402878 <dlerror@plt+0x3b8>
  402698:	48 89 df             	mov    %rbx,%rdi
  40269b:	e8 50 fa ff ff       	call   4020f0 <ferror@plt>
  4026a0:	85 c0                	test   %eax,%eax
  4026a2:	0f 85 d0 01 00 00    	jne    402878 <dlerror@plt+0x3b8>
  4026a8:	44 89 74 24 38       	mov    %r14d,0x38(%rsp)
  4026ad:	48 89 6c 24 30       	mov    %rbp,0x30(%rsp)
  4026b2:	89 44 24 24          	mov    %eax,0x24(%rsp)
  4026b6:	48 89 d8             	mov    %rbx,%rax
  4026b9:	4c 89 eb             	mov    %r13,%rbx
  4026bc:	49 89 c5             	mov    %rax,%r13
  4026bf:	31 f6                	xor    %esi,%esi
  4026c1:	48 8d 7c 24 30       	lea    0x30(%rsp),%rdi
  4026c6:	48 89 5c 24 48       	mov    %rbx,0x48(%rsp)
  4026cb:	c7 44 24 50 00 20 00 	movl   $0x2000,0x50(%rsp)
  4026d2:	00 
  4026d3:	e8 f8 f9 ff ff       	call   4020d0 <inflate@plt>
  4026d8:	41 89 c4             	mov    %eax,%r12d
  4026db:	83 f8 ff             	cmp    $0xffffffff,%eax
  4026de:	0f 8d 94 00 00 00    	jge    402778 <dlerror@plt+0x2b8>
  4026e4:	83 f8 fc             	cmp    $0xfffffffc,%eax
  4026e7:	0f 8d f3 00 00 00    	jge    4027e0 <dlerror@plt+0x320>
  4026ed:	8b 4c 24 50          	mov    0x50(%rsp),%ecx
  4026f1:	ba 00 20 00 00       	mov    $0x2000,%edx
  4026f6:	48 89 c8             	mov    %rcx,%rax
  4026f9:	48 29 ca             	sub    %rcx,%rdx
  4026fc:	48 8b 4c 24 10       	mov    0x10(%rsp),%rcx
  402701:	48 85 c9             	test   %rcx,%rcx
  402704:	0f 84 e6 00 00 00    	je     4027f0 <dlerror@plt+0x330>
  40270a:	be 01 00 00 00       	mov    $0x1,%esi
  40270f:	48 89 df             	mov    %rbx,%rdi
  402712:	48 89 54 24 28       	mov    %rdx,0x28(%rsp)
  402717:	e8 64 fd ff ff       	call   402480 <fwrite@plt>
  40271c:	48 8b 54 24 28       	mov    0x28(%rsp),%rdx
  402721:	48 39 d0             	cmp    %rdx,%rax
  402724:	0f 85 59 01 00 00    	jne    402883 <dlerror@plt+0x3c3>
  40272a:	48 8b 7c 24 10       	mov    0x10(%rsp),%rdi
  40272f:	e8 bc f9 ff ff       	call   4020f0 <ferror@plt>
  402734:	85 c0                	test   %eax,%eax
  402736:	0f 85 47 01 00 00    	jne    402883 <dlerror@plt+0x3c3>
  40273c:	8b 44 24 50          	mov    0x50(%rsp),%eax
  402740:	85 c0                	test   %eax,%eax
  402742:	0f 84 77 ff ff ff    	je     4026bf <dlerror@plt+0x1ff>
  402748:	4c 89 e8             	mov    %r13,%rax
  40274b:	45 89 e0             	mov    %r12d,%r8d
  40274e:	49 89 dd             	mov    %rbx,%r13
  402751:	44 8b 64 24 24       	mov    0x24(%rsp),%r12d
  402756:	48 89 c3             	mov    %rax,%rbx
  402759:	4d 29 f7             	sub    %r14,%r15
  40275c:	41 83 f8 01          	cmp    $0x1,%r8d
  402760:	74 46                	je     4027a8 <dlerror@plt+0x2e8>
  402762:	4d 85 ff             	test   %r15,%r15
  402765:	0f 85 fb fe ff ff    	jne    402666 <dlerror@plt+0x1a6>
  40276b:	41 83 f8 01          	cmp    $0x1,%r8d
  40276f:	74 37                	je     4027a8 <dlerror@plt+0x2e8>
  402771:	eb 17                	jmp    40278a <dlerror@plt+0x2ca>
  402773:	0f 1f 44 00 00       	nopl   0x0(%rax,%rax,1)
  402778:	83 f8 02             	cmp    $0x2,%eax
  40277b:	0f 85 6c ff ff ff    	jne    4026ed <dlerror@plt+0x22d>
  402781:	49 89 dd             	mov    %rbx,%r13
  402784:	41 b8 fd ff ff ff    	mov    $0xfffffffd,%r8d
  40278a:	48 8b 74 24 08       	mov    0x8(%rsp),%rsi
  40278f:	44 89 c2             	mov    %r8d,%edx
  402792:	bf 60 91 40 00       	mov    $0x409160,%edi
  402797:	31 c0                	xor    %eax,%eax
  402799:	41 bc ff ff ff ff    	mov    $0xffffffff,%r12d
  40279f:	48 83 c6 12          	add    $0x12,%rsi
  4027a3:	e8 f8 0a 00 00       	call   4032a0 <dlerror@plt+0xde0>
  4027a8:	48 8d 7c 24 30       	lea    0x30(%rsp),%rdi
  4027ad:	e8 2e fb ff ff       	call   4022e0 <inflateEnd@plt>
  4027b2:	48 89 ef             	mov    %rbp,%rdi
  4027b5:	e8 a6 f8 ff ff       	call   402060 <free@plt>
  4027ba:	4c 89 ef             	mov    %r13,%rdi
  4027bd:	e8 9e f8 ff ff       	call   402060 <free@plt>
  4027c2:	48 81 c4 a8 00 00 00 	add    $0xa8,%rsp
  4027c9:	44 89 e0             	mov    %r12d,%eax
  4027cc:	5b                   	pop    %rbx
  4027cd:	5d                   	pop    %rbp
  4027ce:	41 5c                	pop    %r12
  4027d0:	41 5d                	pop    %r13
  4027d2:	41 5e                	pop    %r14
  4027d4:	41 5f                	pop    %r15
  4027d6:	c3                   	ret    
  4027d7:	66 0f 1f 84 00 00 00 	nopw   0x0(%rax,%rax,1)
  4027de:	00 00 
  4027e0:	49 89 dd             	mov    %rbx,%r13
  4027e3:	41 89 c0             	mov    %eax,%r8d
  4027e6:	eb a2                	jmp    40278a <dlerror@plt+0x2ca>
  4027e8:	0f 1f 84 00 00 00 00 	nopl   0x0(%rax,%rax,1)
  4027ef:	00 
  4027f0:	48 83 7c 24 18 00    	cmpq   $0x0,0x18(%rsp)
  4027f6:	0f 84 44 ff ff ff    	je     402740 <dlerror@plt+0x280>
  4027fc:	48 83 fa 08          	cmp    $0x8,%rdx
  402800:	73 3e                	jae    402840 <dlerror@plt+0x380>
  402802:	f6 c2 04             	test   $0x4,%dl
  402805:	0f 85 a8 00 00 00    	jne    4028b3 <dlerror@plt+0x3f3>
  40280b:	48 85 d2             	test   %rdx,%rdx
  40280e:	74 20                	je     402830 <dlerror@plt+0x370>
  402810:	0f b6 0b             	movzbl (%rbx),%ecx
  402813:	48 8b 74 24 18       	mov    0x18(%rsp),%rsi
  402818:	88 0e                	mov    %cl,(%rsi)
  40281a:	f6 c2 02             	test   $0x2,%dl
  40281d:	74 11                	je     402830 <dlerror@plt+0x370>
  40281f:	0f b7 4c 13 fe       	movzwl -0x2(%rbx,%rdx,1),%ecx
  402824:	48 8b 74 24 18       	mov    0x18(%rsp),%rsi
  402829:	66 89 4c 16 fe       	mov    %cx,-0x2(%rsi,%rdx,1)
  40282e:	66 90                	xchg   %ax,%ax
  402830:	48 01 54 24 18       	add    %rdx,0x18(%rsp)
  402835:	e9 06 ff ff ff       	jmp    402740 <dlerror@plt+0x280>
  40283a:	66 0f 1f 44 00 00    	nopw   0x0(%rax,%rax,1)
  402840:	48 8b 74 24 18       	mov    0x18(%rsp),%rsi
  402845:	48 8b 0b             	mov    (%rbx),%rcx
  402848:	48 89 0e             	mov    %rcx,(%rsi)
  40284b:	48 8b 4c 13 f8       	mov    -0x8(%rbx,%rdx,1),%rcx
  402850:	48 8d 7e 08          	lea    0x8(%rsi),%rdi
  402854:	48 83 e7 f8          	and    $0xfffffffffffffff8,%rdi
  402858:	48 89 4c 16 f8       	mov    %rcx,-0x8(%rsi,%rdx,1)
  40285d:	48 89 f1             	mov    %rsi,%rcx
  402860:	48 89 de             	mov    %rbx,%rsi
  402863:	48 29 f9             	sub    %rdi,%rcx
  402866:	48 29 ce             	sub    %rcx,%rsi
  402869:	48 01 d1             	add    %rdx,%rcx
  40286c:	48 c1 e9 03          	shr    $0x3,%rcx
  402870:	f3 48 a5             	rep movsq %ds:(%rsi),%es:(%rdi)
  402873:	eb bb                	jmp    402830 <dlerror@plt+0x370>
  402875:	0f 1f 00             	nopl   (%rax)
  402878:	41 bc ff ff ff ff    	mov    $0xffffffff,%r12d
  40287e:	e9 25 ff ff ff       	jmp    4027a8 <dlerror@plt+0x2e8>
  402883:	49 89 dd             	mov    %rbx,%r13
  402886:	41 b8 ff ff ff ff    	mov    $0xffffffff,%r8d
  40288c:	e9 f9 fe ff ff       	jmp    40278a <dlerror@plt+0x2ca>
  402891:	48 8b 74 24 08       	mov    0x8(%rsp),%rsi
  402896:	89 c2                	mov    %eax,%edx
  402898:	31 c0                	xor    %eax,%eax
  40289a:	bf 88 90 40 00       	mov    $0x409088,%edi
  40289f:	41 bc ff ff ff ff    	mov    $0xffffffff,%r12d
  4028a5:	48 83 c6 12          	add    $0x12,%rsi
  4028a9:	e8 f2 09 00 00       	call   4032a0 <dlerror@plt+0xde0>
  4028ae:	e9 0f ff ff ff       	jmp    4027c2 <dlerror@plt+0x302>
  4028b3:	8b 0b                	mov    (%rbx),%ecx
  4028b5:	48 8b 74 24 18       	mov    0x18(%rsp),%rsi
  4028ba:	89 0e                	mov    %ecx,(%rsi)
  4028bc:	8b 4c 13 fc          	mov    -0x4(%rbx,%rdx,1),%ecx
  4028c0:	89 4c 16 fc          	mov    %ecx,-0x4(%rsi,%rdx,1)
  4028c4:	e9 67 ff ff ff       	jmp    402830 <dlerror@plt+0x370>
  4028c9:	e8 a2 f7 ff ff       	call   402070 <__errno_location@plt>
  4028ce:	48 8b 4c 24 08       	mov    0x8(%rsp),%rcx
  4028d3:	ba 18 91 40 00       	mov    $0x409118,%edx
  4028d8:	bf 16 90 40 00       	mov    $0x409016,%edi
  4028dd:	8b 30                	mov    (%rax),%esi
  4028df:	31 c0                	xor    %eax,%eax
  4028e1:	48 83 c1 12          	add    $0x12,%rcx
  4028e5:	e8 56 0a 00 00       	call   403340 <dlerror@plt+0xe80>
  4028ea:	e9 b9 fe ff ff       	jmp    4027a8 <dlerror@plt+0x2e8>
  4028ef:	e8 7c f7 ff ff       	call   402070 <__errno_location@plt>
  4028f4:	48 8b 4c 24 08       	mov    0x8(%rsp),%rcx
  4028f9:	ba d0 90 40 00       	mov    $0x4090d0,%edx
  4028fe:	45 31 ed             	xor    %r13d,%r13d
  402901:	8b 30                	mov    (%rax),%esi
  402903:	bf 16 90 40 00       	mov    $0x409016,%edi
  402908:	31 c0                	xor    %eax,%eax
  40290a:	48 83 c1 12          	add    $0x12,%rcx
  40290e:	e8 2d 0a 00 00       	call   403340 <dlerror@plt+0xe80>
  402913:	e9 90 fe ff ff       	jmp    4027a8 <dlerror@plt+0x2e8>
  402918:	0f 1f 84 00 00 00 00 	nopl   0x0(%rax,%rax,1)
  40291f:	00 
  402920:	8b 06                	mov    (%rsi),%eax
  402922:	48 01 f0             	add    %rsi,%rax
  402925:	c3                   	ret    
  402926:	66 2e 0f 1f 84 00 00 	cs nopw 0x0(%rax,%rax,1)
  40292d:	00 00 00 
  402930:	41 57                	push   %r15
  402932:	41 56                	push   %r14
  402934:	41 55                	push   %r13
  402936:	49 89 f5             	mov    %rsi,%r13
  402939:	be 1d 90 40 00       	mov    $0x40901d,%esi
  40293e:	41 54                	push   %r12
  402940:	55                   	push   %rbp
  402941:	53                   	push   %rbx
  402942:	48 89 fb             	mov    %rdi,%rbx
  402945:	48 83 ec 08          	sub    $0x8,%rsp
  402949:	e8 d2 fa ff ff       	call   402420 <fopen@plt>
  40294e:	48 85 c0             	test   %rax,%rax
  402951:	0f 84 11 01 00 00    	je     402a68 <dlerror@plt+0x5a8>
  402957:	41 8b 75 04          	mov    0x4(%r13),%esi
  40295b:	31 d2                	xor    %edx,%edx
  40295d:	48 03 b3 00 10 00 00 	add    0x1000(%rbx),%rsi
  402964:	48 89 c7             	mov    %rax,%rdi
  402967:	49 89 c7             	mov    %rax,%r15
  40296a:	e8 a1 fa ff ff       	call   402410 <fseeko@plt>
  40296f:	85 c0                	test   %eax,%eax
  402971:	0f 88 c9 00 00 00    	js     402a40 <dlerror@plt+0x580>
  402977:	41 8b 5d 0c          	mov    0xc(%r13),%ebx
  40297b:	48 89 df             	mov    %rbx,%rdi
  40297e:	e8 cd f9 ff ff       	call   402350 <malloc@plt>
  402983:	49 89 c6             	mov    %rax,%r14
  402986:	48 85 c0             	test   %rax,%rax
  402989:	0f 84 ee 00 00 00    	je     402a7d <dlerror@plt+0x5bd>
  40298f:	41 80 7d 10 01       	cmpb   $0x1,0x10(%r13)
  402994:	0f 84 86 00 00 00    	je     402a20 <dlerror@plt+0x560>
  40299a:	49 89 c4             	mov    %rax,%r12
  40299d:	48 85 db             	test   %rbx,%rbx
  4029a0:	75 0e                	jne    4029b0 <dlerror@plt+0x4f0>
  4029a2:	eb 5b                	jmp    4029ff <dlerror@plt+0x53f>
  4029a4:	0f 1f 40 00          	nopl   0x0(%rax)
  4029a8:	49 01 ec             	add    %rbp,%r12
  4029ab:	48 29 eb             	sub    %rbp,%rbx
  4029ae:	74 4f                	je     4029ff <dlerror@plt+0x53f>
  4029b0:	bd 00 20 00 00       	mov    $0x2000,%ebp
  4029b5:	4c 89 f9             	mov    %r15,%rcx
  4029b8:	ba 01 00 00 00       	mov    $0x1,%edx
  4029bd:	4c 89 e7             	mov    %r12,%rdi
  4029c0:	48 81 fb 00 20 00 00 	cmp    $0x2000,%rbx
  4029c7:	48 0f 46 eb          	cmovbe %rbx,%rbp
  4029cb:	48 89 ee             	mov    %rbp,%rsi
  4029ce:	e8 2d f7 ff ff       	call   402100 <fread@plt>
  4029d3:	48 85 c0             	test   %rax,%rax
  4029d6:	75 d0                	jne    4029a8 <dlerror@plt+0x4e8>
  4029d8:	e8 93 f6 ff ff       	call   402070 <__errno_location@plt>
  4029dd:	49 8d 4d 12          	lea    0x12(%r13),%rcx
  4029e1:	ba 68 92 40 00       	mov    $0x409268,%edx
  4029e6:	bf 26 90 40 00       	mov    $0x409026,%edi
  4029eb:	8b 30                	mov    (%rax),%esi
  4029ed:	31 c0                	xor    %eax,%eax
  4029ef:	e8 4c 09 00 00       	call   403340 <dlerror@plt+0xe80>
  4029f4:	4c 89 f7             	mov    %r14,%rdi
  4029f7:	45 31 f6             	xor    %r14d,%r14d
  4029fa:	e8 61 f6 ff ff       	call   402060 <free@plt>
  4029ff:	4c 89 ff             	mov    %r15,%rdi
  402a02:	e8 49 f7 ff ff       	call   402150 <fclose@plt>
  402a07:	48 83 c4 08          	add    $0x8,%rsp
  402a0b:	4c 89 f0             	mov    %r14,%rax
  402a0e:	5b                   	pop    %rbx
  402a0f:	5d                   	pop    %rbp
  402a10:	41 5c                	pop    %r12
  402a12:	41 5d                	pop    %r13
  402a14:	41 5e                	pop    %r14
  402a16:	41 5f                	pop    %r15
  402a18:	c3                   	ret    
  402a19:	0f 1f 80 00 00 00 00 	nopl   0x0(%rax)
  402a20:	31 d2                	xor    %edx,%edx
  402a22:	48 89 c1             	mov    %rax,%rcx
  402a25:	4c 89 ee             	mov    %r13,%rsi
  402a28:	4c 89 ff             	mov    %r15,%rdi
  402a2b:	e8 90 fb ff ff       	call   4025c0 <dlerror@plt+0x100>
  402a30:	85 c0                	test   %eax,%eax
  402a32:	74 cb                	je     4029ff <dlerror@plt+0x53f>
  402a34:	eb be                	jmp    4029f4 <dlerror@plt+0x534>
  402a36:	66 2e 0f 1f 84 00 00 	cs nopw 0x0(%rax,%rax,1)
  402a3d:	00 00 00 
  402a40:	e8 2b f6 ff ff       	call   402070 <__errno_location@plt>
  402a45:	49 8d 4d 12          	lea    0x12(%r13),%rcx
  402a49:	ba e0 91 40 00       	mov    $0x4091e0,%edx
  402a4e:	45 31 f6             	xor    %r14d,%r14d
  402a51:	8b 30                	mov    (%rax),%esi
  402a53:	bf 20 90 40 00       	mov    $0x409020,%edi
  402a58:	31 c0                	xor    %eax,%eax
  402a5a:	e8 e1 08 00 00       	call   403340 <dlerror@plt+0xe80>
  402a5f:	eb 9e                	jmp    4029ff <dlerror@plt+0x53f>
  402a61:	0f 1f 80 00 00 00 00 	nopl   0x0(%rax)
  402a68:	49 8d 75 12          	lea    0x12(%r13),%rsi
  402a6c:	bf a8 91 40 00       	mov    $0x4091a8,%edi
  402a71:	31 c0                	xor    %eax,%eax
  402a73:	45 31 f6             	xor    %r14d,%r14d
  402a76:	e8 25 08 00 00       	call   4032a0 <dlerror@plt+0xde0>
  402a7b:	eb 8a                	jmp    402a07 <dlerror@plt+0x547>
  402a7d:	e8 ee f5 ff ff       	call   402070 <__errno_location@plt>
  402a82:	49 8d 4d 12          	lea    0x12(%r13),%rcx
  402a86:	41 89 d8             	mov    %ebx,%r8d
  402a89:	ba 20 92 40 00       	mov    $0x409220,%edx
  402a8e:	8b 30                	mov    (%rax),%esi
  402a90:	bf 16 90 40 00       	mov    $0x409016,%edi
  402a95:	31 c0                	xor    %eax,%eax
  402a97:	e8 a4 08 00 00       	call   403340 <dlerror@plt+0xe80>
  402a9c:	e9 5e ff ff ff       	jmp    4029ff <dlerror@plt+0x53f>
  402aa1:	66 66 2e 0f 1f 84 00 	data16 cs nopw 0x0(%rax,%rax,1)
  402aa8:	00 00 00 00 
  402aac:	0f 1f 40 00          	nopl   0x0(%rax)
  402ab0:	41 57                	push   %r15
  402ab2:	41 56                	push   %r14
  402ab4:	41 55                	push   %r13
  402ab6:	41 54                	push   %r12
  402ab8:	49 89 d4             	mov    %rdx,%r12
  402abb:	55                   	push   %rbp
  402abc:	48 89 fd             	mov    %rdi,%rbp
  402abf:	53                   	push   %rbx
  402ac0:	48 83 ec 18          	sub    $0x18,%rsp
  402ac4:	80 7e 11 6e          	cmpb   $0x6e,0x11(%rsi)
  402ac8:	48 89 74 24 08       	mov    %rsi,0x8(%rsp)
  402acd:	0f 84 3d 01 00 00    	je     402c10 <dlerror@plt+0x750>
  402ad3:	be 2c 90 40 00       	mov    $0x40902c,%esi
  402ad8:	48 89 d7             	mov    %rdx,%rdi
  402adb:	e8 40 f9 ff ff       	call   402420 <fopen@plt>
  402ae0:	49 89 c4             	mov    %rax,%r12
  402ae3:	48 85 c0             	test   %rax,%rax
  402ae6:	0f 84 60 02 00 00    	je     402d4c <dlerror@plt+0x88c>
  402aec:	be 1d 90 40 00       	mov    $0x40901d,%esi
  402af1:	48 89 ef             	mov    %rbp,%rdi
  402af4:	e8 27 f9 ff ff       	call   402420 <fopen@plt>
  402af9:	49 89 c5             	mov    %rax,%r13
  402afc:	48 85 c0             	test   %rax,%rax
  402aff:	0f 84 bb 01 00 00    	je     402cc0 <dlerror@plt+0x800>
  402b05:	48 8b 44 24 08       	mov    0x8(%rsp),%rax
  402b0a:	31 d2                	xor    %edx,%edx
  402b0c:	4c 89 ef             	mov    %r13,%rdi
  402b0f:	8b 70 04             	mov    0x4(%rax),%esi
  402b12:	48 03 b5 00 10 00 00 	add    0x1000(%rbp),%rsi
  402b19:	e8 f2 f8 ff ff       	call   402410 <fseeko@plt>
  402b1e:	85 c0                	test   %eax,%eax
  402b20:	0f 88 fa 01 00 00    	js     402d20 <dlerror@plt+0x860>
  402b26:	48 8b 44 24 08       	mov    0x8(%rsp),%rax
  402b2b:	80 78 10 01          	cmpb   $0x1,0x10(%rax)
  402b2f:	0f 84 1b 01 00 00    	je     402c50 <dlerror@plt+0x790>
  402b35:	bf 00 20 00 00       	mov    $0x2000,%edi
  402b3a:	e8 11 f8 ff ff       	call   402350 <malloc@plt>
  402b3f:	49 89 c6             	mov    %rax,%r14
  402b42:	48 85 c0             	test   %rax,%rax
  402b45:	0f 84 2d 02 00 00    	je     402d78 <dlerror@plt+0x8b8>
  402b4b:	48 8b 44 24 08       	mov    0x8(%rsp),%rax
  402b50:	8b 58 0c             	mov    0xc(%rax),%ebx
  402b53:	48 85 db             	test   %rbx,%rbx
  402b56:	0f 84 84 01 00 00    	je     402ce0 <dlerror@plt+0x820>
  402b5c:	41 bf 00 20 00 00    	mov    $0x2000,%r15d
  402b62:	eb 29                	jmp    402b8d <dlerror@plt+0x6cd>
  402b64:	0f 1f 40 00          	nopl   0x0(%rax)
  402b68:	4c 89 e1             	mov    %r12,%rcx
  402b6b:	ba 01 00 00 00       	mov    $0x1,%edx
  402b70:	48 89 ee             	mov    %rbp,%rsi
  402b73:	4c 89 f7             	mov    %r14,%rdi
  402b76:	e8 05 f9 ff ff       	call   402480 <fwrite@plt>
  402b7b:	48 85 c0             	test   %rax,%rax
  402b7e:	0f 84 6c 01 00 00    	je     402cf0 <dlerror@plt+0x830>
  402b84:	48 29 eb             	sub    %rbp,%rbx
  402b87:	0f 84 53 01 00 00    	je     402ce0 <dlerror@plt+0x820>
  402b8d:	48 81 fb 00 20 00 00 	cmp    $0x2000,%rbx
  402b94:	4c 89 fd             	mov    %r15,%rbp
  402b97:	4d 89 e8             	mov    %r13,%r8
  402b9a:	4c 89 f7             	mov    %r14,%rdi
  402b9d:	48 0f 46 eb          	cmovbe %rbx,%rbp
  402ba1:	b9 01 00 00 00       	mov    $0x1,%ecx
  402ba6:	be 00 20 00 00       	mov    $0x2000,%esi
  402bab:	48 89 ea             	mov    %rbp,%rdx
  402bae:	e8 3d f8 ff ff       	call   4023f0 <__fread_chk@plt>
  402bb3:	48 85 c0             	test   %rax,%rax
  402bb6:	75 b0                	jne    402b68 <dlerror@plt+0x6a8>
  402bb8:	e8 b3 f4 ff ff       	call   402070 <__errno_location@plt>
  402bbd:	48 8b 4c 24 08       	mov    0x8(%rsp),%rcx
  402bc2:	ba 68 92 40 00       	mov    $0x409268,%edx
  402bc7:	bf 26 90 40 00       	mov    $0x409026,%edi
  402bcc:	8b 30                	mov    (%rax),%esi
  402bce:	31 c0                	xor    %eax,%eax
  402bd0:	41 bf ff ff ff ff    	mov    $0xffffffff,%r15d
  402bd6:	48 83 c1 12          	add    $0x12,%rcx
  402bda:	e8 61 07 00 00       	call   403340 <dlerror@plt+0xe80>
  402bdf:	4c 89 f7             	mov    %r14,%rdi
  402be2:	e8 79 f4 ff ff       	call   402060 <free@plt>
  402be7:	48 8b 44 24 08       	mov    0x8(%rsp),%rax
  402bec:	4c 89 e7             	mov    %r12,%rdi
  402bef:	80 78 11 62          	cmpb   $0x62,0x11(%rax)
  402bf3:	75 7c                	jne    402c71 <dlerror@plt+0x7b1>
  402bf5:	e8 16 f7 ff ff       	call   402310 <fileno@plt>
  402bfa:	be c0 01 00 00       	mov    $0x1c0,%esi
  402bff:	89 c7                	mov    %eax,%edi
  402c01:	e8 ca f7 ff ff       	call   4023d0 <fchmod@plt>
  402c06:	eb 7a                	jmp    402c82 <dlerror@plt+0x7c2>
  402c08:	0f 1f 84 00 00 00 00 	nopl   0x0(%rax,%rax,1)
  402c0f:	00 
  402c10:	e8 1b fd ff ff       	call   402930 <dlerror@plt+0x470>
  402c15:	48 89 c5             	mov    %rax,%rbp
  402c18:	48 85 c0             	test   %rax,%rax
  402c1b:	74 77                	je     402c94 <dlerror@plt+0x7d4>
  402c1d:	48 89 c7             	mov    %rax,%rdi
  402c20:	4c 89 e6             	mov    %r12,%rsi
  402c23:	e8 98 1d 00 00       	call   4049c0 <dlerror@plt+0x2500>
  402c28:	48 89 ef             	mov    %rbp,%rdi
  402c2b:	41 89 c7             	mov    %eax,%r15d
  402c2e:	e8 2d f4 ff ff       	call   402060 <free@plt>
  402c33:	45 85 ff             	test   %r15d,%r15d
  402c36:	78 68                	js     402ca0 <dlerror@plt+0x7e0>
  402c38:	48 83 c4 18          	add    $0x18,%rsp
  402c3c:	44 89 f8             	mov    %r15d,%eax
  402c3f:	5b                   	pop    %rbx
  402c40:	5d                   	pop    %rbp
  402c41:	41 5c                	pop    %r12
  402c43:	41 5d                	pop    %r13
  402c45:	41 5e                	pop    %r14
  402c47:	41 5f                	pop    %r15
  402c49:	c3                   	ret    
  402c4a:	66 0f 1f 44 00 00    	nopw   0x0(%rax,%rax,1)
  402c50:	31 c9                	xor    %ecx,%ecx
  402c52:	4c 89 e2             	mov    %r12,%rdx
  402c55:	48 89 c6             	mov    %rax,%rsi
  402c58:	4c 89 ef             	mov    %r13,%rdi
  402c5b:	e8 60 f9 ff ff       	call   4025c0 <dlerror@plt+0x100>
  402c60:	41 89 c7             	mov    %eax,%r15d
  402c63:	48 8b 44 24 08       	mov    0x8(%rsp),%rax
  402c68:	4c 89 e7             	mov    %r12,%rdi
  402c6b:	80 78 11 62          	cmpb   $0x62,0x11(%rax)
  402c6f:	74 84                	je     402bf5 <dlerror@plt+0x735>
  402c71:	e8 9a f6 ff ff       	call   402310 <fileno@plt>
  402c76:	be 80 01 00 00       	mov    $0x180,%esi
  402c7b:	89 c7                	mov    %eax,%edi
  402c7d:	e8 4e f7 ff ff       	call   4023d0 <fchmod@plt>
  402c82:	4c 89 ef             	mov    %r13,%rdi
  402c85:	e8 c6 f4 ff ff       	call   402150 <fclose@plt>
  402c8a:	4c 89 e7             	mov    %r12,%rdi
  402c8d:	e8 be f4 ff ff       	call   402150 <fclose@plt>
  402c92:	eb a4                	jmp    402c38 <dlerror@plt+0x778>
  402c94:	41 bf ff ff ff ff    	mov    $0xffffffff,%r15d
  402c9a:	66 0f 1f 44 00 00    	nopw   0x0(%rax,%rax,1)
  402ca0:	48 8b 74 24 08       	mov    0x8(%rsp),%rsi
  402ca5:	bf a0 92 40 00       	mov    $0x4092a0,%edi
  402caa:	31 c0                	xor    %eax,%eax
  402cac:	48 83 c6 12          	add    $0x12,%rsi
  402cb0:	e8 eb 05 00 00       	call   4032a0 <dlerror@plt+0xde0>
  402cb5:	eb 81                	jmp    402c38 <dlerror@plt+0x778>
  402cb7:	66 0f 1f 84 00 00 00 	nopw   0x0(%rax,%rax,1)
  402cbe:	00 00 
  402cc0:	48 8b 74 24 08       	mov    0x8(%rsp),%rsi
  402cc5:	bf a8 91 40 00       	mov    $0x4091a8,%edi
  402cca:	31 c0                	xor    %eax,%eax
  402ccc:	41 bf ff ff ff ff    	mov    $0xffffffff,%r15d
  402cd2:	48 83 c6 12          	add    $0x12,%rsi
  402cd6:	e8 c5 05 00 00       	call   4032a0 <dlerror@plt+0xde0>
  402cdb:	eb ad                	jmp    402c8a <dlerror@plt+0x7ca>
  402cdd:	0f 1f 00             	nopl   (%rax)
  402ce0:	45 31 ff             	xor    %r15d,%r15d
  402ce3:	e9 f7 fe ff ff       	jmp    402bdf <dlerror@plt+0x71f>
  402ce8:	0f 1f 84 00 00 00 00 	nopl   0x0(%rax,%rax,1)
  402cef:	00 
  402cf0:	e8 7b f3 ff ff       	call   402070 <__errno_location@plt>
  402cf5:	48 8b 4c 24 08       	mov    0x8(%rsp),%rcx
  402cfa:	ba 40 93 40 00       	mov    $0x409340,%edx
  402cff:	bf 35 90 40 00       	mov    $0x409035,%edi
  402d04:	8b 30                	mov    (%rax),%esi
  402d06:	31 c0                	xor    %eax,%eax
  402d08:	41 bf ff ff ff ff    	mov    $0xffffffff,%r15d
  402d0e:	48 83 c1 12          	add    $0x12,%rcx
  402d12:	e8 29 06 00 00       	call   403340 <dlerror@plt+0xe80>
  402d17:	e9 c3 fe ff ff       	jmp    402bdf <dlerror@plt+0x71f>
  402d1c:	0f 1f 40 00          	nopl   0x0(%rax)
  402d20:	e8 4b f3 ff ff       	call   402070 <__errno_location@plt>
  402d25:	48 8b 4c 24 08       	mov    0x8(%rsp),%rcx
  402d2a:	ba e0 91 40 00       	mov    $0x4091e0,%edx
  402d2f:	bf 20 90 40 00       	mov    $0x409020,%edi
  402d34:	8b 30                	mov    (%rax),%esi
  402d36:	31 c0                	xor    %eax,%eax
  402d38:	41 bf ff ff ff ff    	mov    $0xffffffff,%r15d
  402d3e:	48 83 c1 12          	add    $0x12,%rcx
  402d42:	e8 f9 05 00 00       	call   403340 <dlerror@plt+0xe80>
  402d47:	e9 36 ff ff ff       	jmp    402c82 <dlerror@plt+0x7c2>
  402d4c:	e8 1f f3 ff ff       	call   402070 <__errno_location@plt>
  402d51:	48 8b 4c 24 08       	mov    0x8(%rsp),%rcx
  402d56:	ba c8 92 40 00       	mov    $0x4092c8,%edx
  402d5b:	bf 2f 90 40 00       	mov    $0x40902f,%edi
  402d60:	8b 30                	mov    (%rax),%esi
  402d62:	31 c0                	xor    %eax,%eax
  402d64:	41 bf ff ff ff ff    	mov    $0xffffffff,%r15d
  402d6a:	48 83 c1 12          	add    $0x12,%rcx
  402d6e:	e8 cd 05 00 00       	call   403340 <dlerror@plt+0xe80>
  402d73:	e9 c0 fe ff ff       	jmp    402c38 <dlerror@plt+0x778>
  402d78:	e8 f3 f2 ff ff       	call   402070 <__errno_location@plt>
  402d7d:	48 8b 4c 24 08       	mov    0x8(%rsp),%rcx
  402d82:	ba 00 93 40 00       	mov    $0x409300,%edx
  402d87:	bf 16 90 40 00       	mov    $0x409016,%edi
  402d8c:	8b 30                	mov    (%rax),%esi
  402d8e:	31 c0                	xor    %eax,%eax
  402d90:	41 83 cf ff          	or     $0xffffffff,%r15d
  402d94:	48 83 c1 12          	add    $0x12,%rcx
  402d98:	e8 a3 05 00 00       	call   403340 <dlerror@plt+0xe80>
  402d9d:	e9 c1 fe ff ff       	jmp    402c63 <dlerror@plt+0x7a3>
  402da2:	66 66 2e 0f 1f 84 00 	data16 cs nopw 0x0(%rax,%rax,1)
  402da9:	00 00 00 00 
  402dad:	0f 1f 00             	nopl   (%rax)
  402db0:	41 55                	push   %r13
  402db2:	be 1d 90 40 00       	mov    $0x40901d,%esi
  402db7:	49 89 fd             	mov    %rdi,%r13
  402dba:	41 54                	push   %r12
  402dbc:	55                   	push   %rbp
  402dbd:	53                   	push   %rbx
  402dbe:	48 83 ec 68          	sub    $0x68,%rsp
  402dc2:	e8 59 f6 ff ff       	call   402420 <fopen@plt>
  402dc7:	48 85 c0             	test   %rax,%rax
  402dca:	0f 84 40 02 00 00    	je     403010 <dlerror@plt+0xb50>
  402dd0:	48 89 c5             	mov    %rax,%rbp
  402dd3:	48 8b 05 26 8b 00 00 	mov    0x8b26(%rip),%rax        # 40b900 <dlerror@plt+0x9440>
  402dda:	48 89 e6             	mov    %rsp,%rsi
  402ddd:	45 31 e4             	xor    %r12d,%r12d
  402de0:	ba 08 00 00 00       	mov    $0x8,%edx
  402de5:	48 89 ef             	mov    %rbp,%rdi
  402de8:	48 89 04 24          	mov    %rax,(%rsp)
  402dec:	48 c1 e8 18          	shr    $0x18,%rax
  402df0:	83 c0 0c             	add    $0xc,%eax
  402df3:	88 44 24 03          	mov    %al,0x3(%rsp)
  402df7:	e8 b4 4c 00 00       	call   407ab0 <dlerror@plt+0x55f0>
  402dfc:	48 89 c3             	mov    %rax,%rbx
  402dff:	48 85 c0             	test   %rax,%rax
  402e02:	75 1c                	jne    402e20 <dlerror@plt+0x960>
  402e04:	48 89 ef             	mov    %rbp,%rdi
  402e07:	e8 44 f3 ff ff       	call   402150 <fclose@plt>
  402e0c:	48 83 c4 68          	add    $0x68,%rsp
  402e10:	4c 89 e0             	mov    %r12,%rax
  402e13:	5b                   	pop    %rbx
  402e14:	5d                   	pop    %rbp
  402e15:	41 5c                	pop    %r12
  402e17:	41 5d                	pop    %r13
  402e19:	c3                   	ret    
  402e1a:	66 0f 1f 44 00 00    	nopw   0x0(%rax,%rax,1)
  402e20:	31 d2                	xor    %edx,%edx
  402e22:	48 89 c6             	mov    %rax,%rsi
  402e25:	48 89 ef             	mov    %rbp,%rdi
  402e28:	e8 e3 f5 ff ff       	call   402410 <fseeko@plt>
  402e2d:	85 c0                	test   %eax,%eax
  402e2f:	0f 88 f3 01 00 00    	js     403028 <dlerror@plt+0xb68>
  402e35:	48 89 e9             	mov    %rbp,%rcx
  402e38:	ba 01 00 00 00       	mov    $0x1,%edx
  402e3d:	be 58 00 00 00       	mov    $0x58,%esi
  402e42:	48 89 e7             	mov    %rsp,%rdi
  402e45:	e8 b6 f2 ff ff       	call   402100 <fread@plt>
  402e4a:	48 85 c0             	test   %rax,%rax
  402e4d:	0f 84 f5 01 00 00    	je     403048 <dlerror@plt+0xb88>
  402e53:	be 70 10 00 00       	mov    $0x1070,%esi
  402e58:	bf 01 00 00 00       	mov    $0x1,%edi
  402e5d:	e8 ee f3 ff ff       	call   402250 <calloc@plt>
  402e62:	49 89 c4             	mov    %rax,%r12
  402e65:	48 85 c0             	test   %rax,%rax
  402e68:	0f 84 0b 02 00 00    	je     403079 <dlerror@plt+0xbb9>
  402e6e:	4c 89 e9             	mov    %r13,%rcx
  402e71:	48 89 c7             	mov    %rax,%rdi
  402e74:	ba 66 bb 40 00       	mov    $0x40bb66,%edx
  402e79:	be 00 10 00 00       	mov    $0x1000,%esi
  402e7e:	31 c0                	xor    %eax,%eax
  402e80:	e8 3b f3 ff ff       	call   4021c0 <snprintf@plt>
  402e85:	8b 44 24 08          	mov    0x8(%rsp),%eax
  402e89:	48 8d 4c 24 18       	lea    0x18(%rsp),%rcx
  402e8e:	49 8d bc 24 2c 10 00 	lea    0x102c(%r12),%rdi
  402e95:	00 
  402e96:	ba 66 bb 40 00       	mov    $0x40bb66,%edx
  402e9b:	be 40 00 00 00       	mov    $0x40,%esi
  402ea0:	0f c8                	bswap  %eax
  402ea2:	89 44 24 08          	mov    %eax,0x8(%rsp)
  402ea6:	8b 44 24 0c          	mov    0xc(%rsp),%eax
  402eaa:	0f c8                	bswap  %eax
  402eac:	89 44 24 0c          	mov    %eax,0xc(%rsp)
  402eb0:	8b 44 24 10          	mov    0x10(%rsp),%eax
  402eb4:	0f c8                	bswap  %eax
  402eb6:	89 44 24 10          	mov    %eax,0x10(%rsp)
  402eba:	8b 44 24 14          	mov    0x14(%rsp),%eax
  402ebe:	0f c8                	bswap  %eax
  402ec0:	41 89 84 24 28 10 00 	mov    %eax,0x1028(%r12)
  402ec7:	00 
  402ec8:	89 44 24 14          	mov    %eax,0x14(%rsp)
  402ecc:	31 c0                	xor    %eax,%eax
  402ece:	e8 ed f2 ff ff       	call   4021c0 <snprintf@plt>
  402ed3:	8b 44 24 08          	mov    0x8(%rsp),%eax
  402ed7:	8b 74 24 0c          	mov    0xc(%rsp),%esi
  402edb:	31 d2                	xor    %edx,%edx
  402edd:	48 89 ef             	mov    %rbp,%rdi
  402ee0:	48 29 c3             	sub    %rax,%rbx
  402ee3:	48 8d 43 58          	lea    0x58(%rbx),%rax
  402ee7:	49 89 84 24 00 10 00 	mov    %rax,0x1000(%r12)
  402eee:	00 
  402eef:	48 01 c6             	add    %rax,%rsi
  402ef2:	e8 19 f5 ff ff       	call   402410 <fseeko@plt>
  402ef7:	44 8b 6c 24 10       	mov    0x10(%rsp),%r13d
  402efc:	4c 89 ef             	mov    %r13,%rdi
  402eff:	e8 4c f4 ff ff       	call   402350 <malloc@plt>
  402f04:	49 89 84 24 08 10 00 	mov    %rax,0x1008(%r12)
  402f0b:	00 
  402f0c:	48 89 c7             	mov    %rax,%rdi
  402f0f:	48 85 c0             	test   %rax,%rax
  402f12:	0f 84 7e 01 00 00    	je     403096 <dlerror@plt+0xbd6>
  402f18:	48 89 e9             	mov    %rbp,%rcx
  402f1b:	ba 01 00 00 00       	mov    $0x1,%edx
  402f20:	4c 89 ee             	mov    %r13,%rsi
  402f23:	e8 d8 f1 ff ff       	call   402100 <fread@plt>
  402f28:	48 85 c0             	test   %rax,%rax
  402f2b:	0f 84 bf 00 00 00    	je     402ff0 <dlerror@plt+0xb30>
  402f31:	8b 44 24 10          	mov    0x10(%rsp),%eax
  402f35:	49 03 84 24 08 10 00 	add    0x1008(%r12),%rax
  402f3c:	00 
  402f3d:	48 89 ef             	mov    %rbp,%rdi
  402f40:	49 89 84 24 10 10 00 	mov    %rax,0x1010(%r12)
  402f47:	00 
  402f48:	e8 a3 f1 ff ff       	call   4020f0 <ferror@plt>
  402f4d:	85 c0                	test   %eax,%eax
  402f4f:	0f 85 13 01 00 00    	jne    403068 <dlerror@plt+0xba8>
  402f55:	49 8b 84 24 08 10 00 	mov    0x1008(%r12),%rax
  402f5c:	00 
  402f5d:	49 8b b4 24 10 10 00 	mov    0x1010(%r12),%rsi
  402f64:	00 
  402f65:	48 39 f0             	cmp    %rsi,%rax
  402f68:	0f 83 96 fe ff ff    	jae    402e04 <dlerror@plt+0x944>
  402f6e:	41 0f b6 bc 24 18 10 	movzbl 0x1018(%r12),%edi
  402f75:	00 00 
  402f77:	66 0f 1f 84 00 00 00 	nopw   0x0(%rax,%rax,1)
  402f7e:	00 00 
  402f80:	8b 48 04             	mov    0x4(%rax),%ecx
  402f83:	44 0f b6 40 11       	movzbl 0x11(%rax),%r8d
  402f88:	8b 10                	mov    (%rax),%edx
  402f8a:	0f c9                	bswap  %ecx
  402f8c:	89 48 04             	mov    %ecx,0x4(%rax)
  402f8f:	8b 48 08             	mov    0x8(%rax),%ecx
  402f92:	0f ca                	bswap  %edx
  402f94:	89 10                	mov    %edx,(%rax)
  402f96:	0f c9                	bswap  %ecx
  402f98:	89 48 08             	mov    %ecx,0x8(%rax)
  402f9b:	8b 48 0c             	mov    0xc(%rax),%ecx
  402f9e:	0f c9                	bswap  %ecx
  402fa0:	89 48 0c             	mov    %ecx,0xc(%rax)
  402fa3:	41 8d 48 a6          	lea    -0x5a(%r8),%ecx
  402fa7:	80 f9 1e             	cmp    $0x1e,%cl
  402faa:	77 19                	ja     402fc5 <dlerror@plt+0xb05>
  402fac:	0f b6 c9             	movzbl %cl,%ecx
  402faf:	ff 24 cd 00 94 40 00 	jmp    *0x409400(,%rcx,8)
  402fb6:	66 2e 0f 1f 84 00 00 	cs nopw 0x0(%rax,%rax,1)
  402fbd:	00 00 00 
  402fc0:	bf 01 00 00 00       	mov    $0x1,%edi
  402fc5:	41 80 f8 6c          	cmp    $0x6c,%r8b
  402fc9:	75 08                	jne    402fd3 <dlerror@plt+0xb13>
  402fcb:	49 89 84 24 20 10 00 	mov    %rax,0x1020(%r12)
  402fd2:	00 
  402fd3:	89 d2                	mov    %edx,%edx
  402fd5:	48 01 d0             	add    %rdx,%rax
  402fd8:	48 39 f0             	cmp    %rsi,%rax
  402fdb:	72 a3                	jb     402f80 <dlerror@plt+0xac0>
  402fdd:	41 88 bc 24 18 10 00 	mov    %dil,0x1018(%r12)
  402fe4:	00 
  402fe5:	e9 1a fe ff ff       	jmp    402e04 <dlerror@plt+0x944>
  402fea:	66 0f 1f 44 00 00    	nopw   0x0(%rax,%rax,1)
  402ff0:	e8 7b f0 ff ff       	call   402070 <__errno_location@plt>
  402ff5:	ba 5b 90 40 00       	mov    $0x40905b,%edx
  402ffa:	bf 26 90 40 00       	mov    $0x409026,%edi
  402fff:	8b 30                	mov    (%rax),%esi
  403001:	31 c0                	xor    %eax,%eax
  403003:	e8 38 03 00 00       	call   403340 <dlerror@plt+0xe80>
  403008:	e9 f7 fd ff ff       	jmp    402e04 <dlerror@plt+0x944>
  40300d:	0f 1f 00             	nopl   (%rax)
  403010:	48 83 c4 68          	add    $0x68,%rsp
  403014:	45 31 e4             	xor    %r12d,%r12d
  403017:	5b                   	pop    %rbx
  403018:	4c 89 e0             	mov    %r12,%rax
  40301b:	5d                   	pop    %rbp
  40301c:	41 5c                	pop    %r12
  40301e:	41 5d                	pop    %r13
  403020:	c3                   	ret    
  403021:	0f 1f 80 00 00 00 00 	nopl   0x0(%rax)
  403028:	e8 43 f0 ff ff       	call   402070 <__errno_location@plt>
  40302d:	ba 78 93 40 00       	mov    $0x409378,%edx
  403032:	bf 20 90 40 00       	mov    $0x409020,%edi
  403037:	8b 30                	mov    (%rax),%esi
  403039:	31 c0                	xor    %eax,%eax
  40303b:	e8 00 03 00 00       	call   403340 <dlerror@plt+0xe80>
  403040:	e9 bf fd ff ff       	jmp    402e04 <dlerror@plt+0x944>
  403045:	0f 1f 00             	nopl   (%rax)
  403048:	e8 23 f0 ff ff       	call   402070 <__errno_location@plt>
  40304d:	ba 3c 90 40 00       	mov    $0x40903c,%edx
  403052:	bf 26 90 40 00       	mov    $0x409026,%edi
  403057:	8b 30                	mov    (%rax),%esi
  403059:	31 c0                	xor    %eax,%eax
  40305b:	e8 e0 02 00 00       	call   403340 <dlerror@plt+0xe80>
  403060:	e9 9f fd ff ff       	jmp    402e04 <dlerror@plt+0x944>
  403065:	0f 1f 00             	nopl   (%rax)
  403068:	bf 75 90 40 00       	mov    $0x409075,%edi
  40306d:	31 c0                	xor    %eax,%eax
  40306f:	e8 2c 02 00 00       	call   4032a0 <dlerror@plt+0xde0>
  403074:	e9 8b fd ff ff       	jmp    402e04 <dlerror@plt+0x944>
  403079:	e8 f2 ef ff ff       	call   402070 <__errno_location@plt>
  40307e:	ba a0 93 40 00       	mov    $0x4093a0,%edx
  403083:	bf 54 90 40 00       	mov    $0x409054,%edi
  403088:	8b 30                	mov    (%rax),%esi
  40308a:	31 c0                	xor    %eax,%eax
  40308c:	e8 af 02 00 00       	call   403340 <dlerror@plt+0xe80>
  403091:	e9 6e fd ff ff       	jmp    402e04 <dlerror@plt+0x944>
  403096:	e8 d5 ef ff ff       	call   402070 <__errno_location@plt>
  40309b:	ba d8 93 40 00       	mov    $0x4093d8,%edx
  4030a0:	bf 16 90 40 00       	mov    $0x409016,%edi
  4030a5:	8b 30                	mov    (%rax),%esi
  4030a7:	31 c0                	xor    %eax,%eax
  4030a9:	e8 92 02 00 00       	call   403340 <dlerror@plt+0xe80>
  4030ae:	e9 51 fd ff ff       	jmp    402e04 <dlerror@plt+0x944>
  4030b3:	66 66 2e 0f 1f 84 00 	data16 cs nopw 0x0(%rax,%rax,1)
  4030ba:	00 00 00 00 
  4030be:	66 90                	xchg   %ax,%ax
  4030c0:	55                   	push   %rbp
  4030c1:	48 8b 2f             	mov    (%rdi),%rbp
  4030c4:	48 c7 07 00 00 00 00 	movq   $0x0,(%rdi)
  4030cb:	48 85 ed             	test   %rbp,%rbp
  4030ce:	74 18                	je     4030e8 <dlerror@plt+0xc28>
  4030d0:	48 8b bd 08 10 00 00 	mov    0x1008(%rbp),%rdi
  4030d7:	e8 84 ef ff ff       	call   402060 <free@plt>
  4030dc:	48 89 ef             	mov    %rbp,%rdi
  4030df:	5d                   	pop    %rbp
  4030e0:	e9 7b ef ff ff       	jmp    402060 <free@plt>
  4030e5:	0f 1f 00             	nopl   (%rax)
  4030e8:	5d                   	pop    %rbp
  4030e9:	c3                   	ret    
  4030ea:	66 0f 1f 44 00 00    	nopw   0x0(%rax,%rax,1)
  4030f0:	41 54                	push   %r12
  4030f2:	55                   	push   %rbp
  4030f3:	53                   	push   %rbx
  4030f4:	4c 8b a7 08 10 00 00 	mov    0x1008(%rdi),%r12
  4030fb:	48 8b af 10 10 00 00 	mov    0x1010(%rdi),%rbp
  403102:	49 39 ec             	cmp    %rbp,%r12
  403105:	73 31                	jae    403138 <dlerror@plt+0xc78>
  403107:	48 89 f3             	mov    %rsi,%rbx
  40310a:	eb 10                	jmp    40311c <dlerror@plt+0xc5c>
  40310c:	0f 1f 40 00          	nopl   0x0(%rax)
  403110:	41 8b 04 24          	mov    (%r12),%eax
  403114:	49 01 c4             	add    %rax,%r12
  403117:	49 39 ec             	cmp    %rbp,%r12
  40311a:	73 1c                	jae    403138 <dlerror@plt+0xc78>
  40311c:	49 8d 7c 24 12       	lea    0x12(%r12),%rdi
  403121:	48 89 de             	mov    %rbx,%rsi
  403124:	e8 37 f1 ff ff       	call   402260 <strcmp@plt>
  403129:	85 c0                	test   %eax,%eax
  40312b:	75 e3                	jne    403110 <dlerror@plt+0xc50>
  40312d:	4c 89 e0             	mov    %r12,%rax
  403130:	5b                   	pop    %rbx
  403131:	5d                   	pop    %rbp
  403132:	41 5c                	pop    %r12
  403134:	c3                   	ret    
  403135:	0f 1f 00             	nopl   (%rax)
  403138:	45 31 e4             	xor    %r12d,%r12d
  40313b:	5b                   	pop    %rbx
  40313c:	5d                   	pop    %rbp
  40313d:	4c 89 e0             	mov    %r12,%rax
  403140:	41 5c                	pop    %r12
  403142:	c3                   	ret    
  403143:	66 2e 0f 1f 84 00 00 	cs nopw 0x0(%rax,%rax,1)
  40314a:	00 00 00 
  40314d:	0f 1f 00             	nopl   (%rax)
  403150:	41 54                	push   %r12
  403152:	49 89 fc             	mov    %rdi,%r12
  403155:	55                   	push   %rbp
  403156:	48 89 d5             	mov    %rdx,%rbp
  403159:	53                   	push   %rbx
  40315a:	48 89 f3             	mov    %rsi,%rbx
  40315d:	48 81 ec 00 10 00 00 	sub    $0x1000,%rsp
  403164:	e8 d7 ef ff ff       	call   402140 <getpid@plt>
  403169:	48 83 ec 08          	sub    $0x8,%rsp
  40316d:	b9 00 10 00 00       	mov    $0x1000,%ecx
  403172:	ba 01 00 00 00       	mov    $0x1,%edx
  403177:	41 54                	push   %r12
  403179:	41 89 c1             	mov    %eax,%r9d
  40317c:	41 b8 f8 94 40 00    	mov    $0x4094f8,%r8d
  403182:	be 00 10 00 00       	mov    $0x1000,%esi
  403187:	31 c0                	xor    %eax,%eax
  403189:	48 8d 7c 24 10       	lea    0x10(%rsp),%rdi
  40318e:	e8 ad ee ff ff       	call   402040 <__snprintf_chk@plt>
  403193:	5a                   	pop    %rdx
  403194:	59                   	pop    %rcx
  403195:	85 c0                	test   %eax,%eax
  403197:	78 4f                	js     4031e8 <dlerror@plt+0xd28>
  403199:	48 63 f8             	movslq %eax,%rdi
  40319c:	be 00 10 00 00       	mov    $0x1000,%esi
  4031a1:	48 01 e7             	add    %rsp,%rdi
  4031a4:	29 c6                	sub    %eax,%esi
  4031a6:	b8 00 00 00 00       	mov    $0x0,%eax
  4031ab:	0f 48 f0             	cmovs  %eax,%esi
  4031ae:	48 63 f6             	movslq %esi,%rsi
  4031b1:	49 89 e9             	mov    %rbp,%r9
  4031b4:	49 89 d8             	mov    %rbx,%r8
  4031b7:	ba 01 00 00 00       	mov    $0x1,%edx
  4031bc:	48 c7 c1 ff ff ff ff 	mov    $0xffffffffffffffff,%rcx
  4031c3:	e8 c8 f1 ff ff       	call   402390 <__vsnprintf_chk@plt>
  4031c8:	48 8b 35 b9 c0 00 00 	mov    0xc0b9(%rip),%rsi        # 40f288 <stderr@GLIBC_2.2.5>
  4031cf:	48 89 e7             	mov    %rsp,%rdi
  4031d2:	e8 09 f0 ff ff       	call   4021e0 <fputs@plt>
  4031d7:	48 81 c4 00 10 00 00 	add    $0x1000,%rsp
  4031de:	5b                   	pop    %rbx
  4031df:	5d                   	pop    %rbp
  4031e0:	41 5c                	pop    %r12
  4031e2:	c3                   	ret    
  4031e3:	0f 1f 44 00 00       	nopl   0x0(%rax,%rax,1)
  4031e8:	be 00 10 00 00       	mov    $0x1000,%esi
  4031ed:	48 89 e7             	mov    %rsp,%rdi
  4031f0:	eb bf                	jmp    4031b1 <dlerror@plt+0xcf1>
  4031f2:	66 66 2e 0f 1f 84 00 	data16 cs nopw 0x0(%rax,%rax,1)
  4031f9:	00 00 00 00 
  4031fd:	0f 1f 00             	nopl   (%rax)
  403200:	48 81 ec d8 00 00 00 	sub    $0xd8,%rsp
  403207:	49 89 fa             	mov    %rdi,%r10
  40320a:	48 89 74 24 28       	mov    %rsi,0x28(%rsp)
  40320f:	48 89 54 24 30       	mov    %rdx,0x30(%rsp)
  403214:	48 89 4c 24 38       	mov    %rcx,0x38(%rsp)
  403219:	4c 89 44 24 40       	mov    %r8,0x40(%rsp)
  40321e:	4c 89 4c 24 48       	mov    %r9,0x48(%rsp)
  403223:	84 c0                	test   %al,%al
  403225:	74 37                	je     40325e <dlerror@plt+0xd9e>
  403227:	0f 29 44 24 50       	movaps %xmm0,0x50(%rsp)
  40322c:	0f 29 4c 24 60       	movaps %xmm1,0x60(%rsp)
  403231:	0f 29 54 24 70       	movaps %xmm2,0x70(%rsp)
  403236:	0f 29 9c 24 80 00 00 	movaps %xmm3,0x80(%rsp)
  40323d:	00 
  40323e:	0f 29 a4 24 90 00 00 	movaps %xmm4,0x90(%rsp)
  403245:	00 
  403246:	0f 29 ac 24 a0 00 00 	movaps %xmm5,0xa0(%rsp)
  40324d:	00 
  40324e:	0f 29 b4 24 b0 00 00 	movaps %xmm6,0xb0(%rsp)
  403255:	00 
  403256:	0f 29 bc 24 c0 00 00 	movaps %xmm7,0xc0(%rsp)
  40325d:	00 
  40325e:	48 8d 84 24 e0 00 00 	lea    0xe0(%rsp),%rax
  403265:	00 
  403266:	48 8d 54 24 08       	lea    0x8(%rsp),%rdx
  40326b:	4c 89 d6             	mov    %r10,%rsi
  40326e:	bf 05 95 40 00       	mov    $0x409505,%edi
  403273:	48 89 44 24 10       	mov    %rax,0x10(%rsp)
  403278:	48 8d 44 24 20       	lea    0x20(%rsp),%rax
  40327d:	c7 44 24 08 08 00 00 	movl   $0x8,0x8(%rsp)
  403284:	00 
  403285:	c7 44 24 0c 30 00 00 	movl   $0x30,0xc(%rsp)
  40328c:	00 
  40328d:	48 89 44 24 18       	mov    %rax,0x18(%rsp)
  403292:	e8 b9 fe ff ff       	call   403150 <dlerror@plt+0xc90>
  403297:	48 81 c4 d8 00 00 00 	add    $0xd8,%rsp
  40329e:	c3                   	ret    
  40329f:	90                   	nop
  4032a0:	48 81 ec d8 00 00 00 	sub    $0xd8,%rsp
  4032a7:	49 89 fa             	mov    %rdi,%r10
  4032aa:	48 89 74 24 28       	mov    %rsi,0x28(%rsp)
  4032af:	48 89 54 24 30       	mov    %rdx,0x30(%rsp)
  4032b4:	48 89 4c 24 38       	mov    %rcx,0x38(%rsp)
  4032b9:	4c 89 44 24 40       	mov    %r8,0x40(%rsp)
  4032be:	4c 89 4c 24 48       	mov    %r9,0x48(%rsp)
  4032c3:	84 c0                	test   %al,%al
  4032c5:	74 37                	je     4032fe <dlerror@plt+0xe3e>
  4032c7:	0f 29 44 24 50       	movaps %xmm0,0x50(%rsp)
  4032cc:	0f 29 4c 24 60       	movaps %xmm1,0x60(%rsp)
  4032d1:	0f 29 54 24 70       	movaps %xmm2,0x70(%rsp)
  4032d6:	0f 29 9c 24 80 00 00 	movaps %xmm3,0x80(%rsp)
  4032dd:	00 
  4032de:	0f 29 a4 24 90 00 00 	movaps %xmm4,0x90(%rsp)
  4032e5:	00 
  4032e6:	0f 29 ac 24 a0 00 00 	movaps %xmm5,0xa0(%rsp)
  4032ed:	00 
  4032ee:	0f 29 b4 24 b0 00 00 	movaps %xmm6,0xb0(%rsp)
  4032f5:	00 
  4032f6:	0f 29 bc 24 c0 00 00 	movaps %xmm7,0xc0(%rsp)
  4032fd:	00 
  4032fe:	48 8d 84 24 e0 00 00 	lea    0xe0(%rsp),%rax
  403305:	00 
  403306:	48 8d 54 24 08       	lea    0x8(%rsp),%rdx
  40330b:	4c 89 d6             	mov    %r10,%rsi
  40330e:	bf 0d 95 40 00       	mov    $0x40950d,%edi
  403313:	48 89 44 24 10       	mov    %rax,0x10(%rsp)
  403318:	48 8d 44 24 20       	lea    0x20(%rsp),%rax
  40331d:	c7 44 24 08 08 00 00 	movl   $0x8,0x8(%rsp)
  403324:	00 
  403325:	c7 44 24 0c 30 00 00 	movl   $0x30,0xc(%rsp)
  40332c:	00 
  40332d:	48 89 44 24 18       	mov    %rax,0x18(%rsp)
  403332:	e8 19 fe ff ff       	call   403150 <dlerror@plt+0xc90>
  403337:	48 81 c4 d8 00 00 00 	add    $0xd8,%rsp
  40333e:	c3                   	ret    
  40333f:	90                   	nop
  403340:	41 57                	push   %r15
  403342:	41 56                	push   %r14
  403344:	49 89 d6             	mov    %rdx,%r14
  403347:	41 55                	push   %r13
  403349:	41 89 f5             	mov    %esi,%r13d
  40334c:	41 54                	push   %r12
  40334e:	49 89 fc             	mov    %rdi,%r12
  403351:	55                   	push   %rbp
  403352:	53                   	push   %rbx
  403353:	48 81 ec d8 10 00 00 	sub    $0x10d8,%rsp
  40335a:	48 89 8c 24 38 10 00 	mov    %rcx,0x1038(%rsp)
  403361:	00 
  403362:	4c 89 84 24 40 10 00 	mov    %r8,0x1040(%rsp)
  403369:	00 
  40336a:	4c 89 8c 24 48 10 00 	mov    %r9,0x1048(%rsp)
  403371:	00 
  403372:	84 c0                	test   %al,%al
  403374:	74 40                	je     4033b6 <dlerror@plt+0xef6>
  403376:	0f 29 84 24 50 10 00 	movaps %xmm0,0x1050(%rsp)
  40337d:	00 
  40337e:	0f 29 8c 24 60 10 00 	movaps %xmm1,0x1060(%rsp)
  403385:	00 
  403386:	0f 29 94 24 70 10 00 	movaps %xmm2,0x1070(%rsp)
  40338d:	00 
  40338e:	0f 29 9c 24 80 10 00 	movaps %xmm3,0x1080(%rsp)
  403395:	00 
  403396:	0f 29 a4 24 90 10 00 	movaps %xmm4,0x1090(%rsp)
  40339d:	00 
  40339e:	0f 29 ac 24 a0 10 00 	movaps %xmm5,0x10a0(%rsp)
  4033a5:	00 
  4033a6:	0f 29 b4 24 b0 10 00 	movaps %xmm6,0x10b0(%rsp)
  4033ad:	00 
  4033ae:	0f 29 bc 24 c0 10 00 	movaps %xmm7,0x10c0(%rsp)
  4033b5:	00 
  4033b6:	e8 85 ed ff ff       	call   402140 <getpid@plt>
  4033bb:	41 b8 13 95 40 00    	mov    $0x409513,%r8d
  4033c1:	b9 00 10 00 00       	mov    $0x1000,%ecx
  4033c6:	ba 01 00 00 00       	mov    $0x1,%edx
  4033cb:	41 89 c1             	mov    %eax,%r9d
  4033ce:	be 00 10 00 00       	mov    $0x1000,%esi
  4033d3:	48 8d 7c 24 20       	lea    0x20(%rsp),%rdi
  4033d8:	31 c0                	xor    %eax,%eax
  4033da:	e8 61 ec ff ff       	call   402040 <__snprintf_chk@plt>
  4033df:	bb 00 10 00 00       	mov    $0x1000,%ebx
  4033e4:	48 8d 4c 24 20       	lea    0x20(%rsp),%rcx
  4033e9:	4d 89 f0             	mov    %r14,%r8
  4033ec:	29 c3                	sub    %eax,%ebx
  4033ee:	48 63 e8             	movslq %eax,%rbp
  4033f1:	4c 8d 4c 24 08       	lea    0x8(%rsp),%r9
  4033f6:	ba 01 00 00 00       	mov    $0x1,%edx
  4033fb:	48 01 cd             	add    %rcx,%rbp
  4033fe:	48 8d 84 24 10 11 00 	lea    0x1110(%rsp),%rax
  403405:	00 
  403406:	4c 63 fb             	movslq %ebx,%r15
  403409:	48 c7 c1 ff ff ff ff 	mov    $0xffffffffffffffff,%rcx
  403410:	48 89 44 24 10       	mov    %rax,0x10(%rsp)
  403415:	4c 89 fe             	mov    %r15,%rsi
  403418:	48 8d 84 24 20 10 00 	lea    0x1020(%rsp),%rax
  40341f:	00 
  403420:	48 89 ef             	mov    %rbp,%rdi
  403423:	c7 44 24 08 18 00 00 	movl   $0x18,0x8(%rsp)
  40342a:	00 
  40342b:	c7 44 24 0c 30 00 00 	movl   $0x30,0xc(%rsp)
  403432:	00 
  403433:	48 89 44 24 18       	mov    %rax,0x18(%rsp)
  403438:	e8 53 ef ff ff       	call   402390 <__vsnprintf_chk@plt>
  40343d:	85 c0                	test   %eax,%eax
  40343f:	78 13                	js     403454 <dlerror@plt+0xf94>
  403441:	48 63 d0             	movslq %eax,%rdx
  403444:	48 01 d5             	add    %rdx,%rbp
  403447:	29 c3                	sub    %eax,%ebx
  403449:	b8 00 00 00 00       	mov    $0x0,%eax
  40344e:	0f 48 d8             	cmovs  %eax,%ebx
  403451:	4c 63 fb             	movslq %ebx,%r15
  403454:	44 89 ef             	mov    %r13d,%edi
  403457:	e8 34 f0 ff ff       	call   402490 <strerror@plt>
  40345c:	48 83 ec 08          	sub    $0x8,%rsp
  403460:	4d 89 e1             	mov    %r12,%r9
  403463:	4c 89 fe             	mov    %r15,%rsi
  403466:	50                   	push   %rax
  403467:	48 89 ef             	mov    %rbp,%rdi
  40346a:	41 b8 23 95 40 00    	mov    $0x409523,%r8d
  403470:	ba 01 00 00 00       	mov    $0x1,%edx
  403475:	48 c7 c1 ff ff ff ff 	mov    $0xffffffffffffffff,%rcx
  40347c:	31 c0                	xor    %eax,%eax
  40347e:	e8 bd eb ff ff       	call   402040 <__snprintf_chk@plt>
  403483:	48 8b 35 fe bd 00 00 	mov    0xbdfe(%rip),%rsi        # 40f288 <stderr@GLIBC_2.2.5>
  40348a:	48 8d 7c 24 30       	lea    0x30(%rsp),%rdi
  40348f:	e8 4c ed ff ff       	call   4021e0 <fputs@plt>
  403494:	48 81 c4 e8 10 00 00 	add    $0x10e8,%rsp
  40349b:	5b                   	pop    %rbx
  40349c:	5d                   	pop    %rbp
  40349d:	41 5c                	pop    %r12
  40349f:	41 5d                	pop    %r13
  4034a1:	41 5e                	pop    %r14
  4034a3:	41 5f                	pop    %r15
  4034a5:	c3                   	ret    
  4034a6:	66 2e 0f 1f 84 00 00 	cs nopw 0x0(%rax,%rax,1)
  4034ad:	00 00 00 
  4034b0:	41 57                	push   %r15
  4034b2:	41 56                	push   %r14
  4034b4:	49 89 fe             	mov    %rdi,%r14
  4034b7:	41 55                	push   %r13
  4034b9:	41 54                	push   %r12
  4034bb:	55                   	push   %rbp
  4034bc:	53                   	push   %rbx
  4034bd:	48 81 ec 18 10 00 00 	sub    $0x1018,%rsp
  4034c4:	48 8b 9f 20 20 00 00 	mov    0x2020(%rdi),%rbx
  4034cb:	bf 2b 95 40 00       	mov    $0x40952b,%edi
  4034d0:	ff 15 e2 fe 00 00    	call   *0xfee2(%rip)        # 4133b8 <stderr@GLIBC_2.2.5+0x4130>
  4034d6:	48 85 c0             	test   %rax,%rax
  4034d9:	0f 84 a9 01 00 00    	je     403688 <dlerror@plt+0x11c8>
  4034df:	49 89 c4             	mov    %rax,%r12
  4034e2:	48 89 c7             	mov    %rax,%rdi
  4034e5:	ff 15 a5 fe 00 00    	call   *0xfea5(%rip)        # 413390 <stderr@GLIBC_2.2.5+0x4108>
  4034eb:	49 89 c5             	mov    %rax,%r13
  4034ee:	48 85 c0             	test   %rax,%rax
  4034f1:	0f 84 a4 01 00 00    	je     40369b <dlerror@plt+0x11db>
  4034f7:	4c 8b bb 08 10 00 00 	mov    0x1008(%rbx),%r15
  4034fe:	4c 3b bb 10 10 00 00 	cmp    0x1010(%rbx),%r15
  403505:	0f 83 25 01 00 00    	jae    403630 <dlerror@plt+0x1170>
  40350b:	49 8d 86 32 20 00 00 	lea    0x2032(%r14),%rax
  403512:	48 89 04 24          	mov    %rax,(%rsp)
  403516:	eb 23                	jmp    40353b <dlerror@plt+0x107b>
  403518:	0f 1f 84 00 00 00 00 	nopl   0x0(%rax,%rax,1)
  40351f:	00 
  403520:	4c 89 fe             	mov    %r15,%rsi
  403523:	48 89 df             	mov    %rbx,%rdi
  403526:	e8 f5 f3 ff ff       	call   402920 <dlerror@plt+0x460>
  40352b:	49 89 c7             	mov    %rax,%r15
  40352e:	48 39 83 10 10 00 00 	cmp    %rax,0x1010(%rbx)
  403535:	0f 86 f5 00 00 00    	jbe    403630 <dlerror@plt+0x1170>
  40353b:	41 80 7f 11 73       	cmpb   $0x73,0x11(%r15)
  403540:	75 de                	jne    403520 <dlerror@plt+0x1060>
  403542:	4c 89 fe             	mov    %r15,%rsi
  403545:	48 89 df             	mov    %rbx,%rdi
  403548:	e8 e3 f3 ff ff       	call   402930 <dlerror@plt+0x470>
  40354d:	48 89 c5             	mov    %rax,%rbp
  403550:	48 85 c0             	test   %rax,%rax
  403553:	0f 84 eb 00 00 00    	je     403644 <dlerror@plt+0x1184>
  403559:	49 8d 47 12          	lea    0x12(%r15),%rax
  40355d:	b9 00 10 00 00       	mov    $0x1000,%ecx
  403562:	ba 01 00 00 00       	mov    $0x1,%edx
  403567:	41 b8 34 95 40 00    	mov    $0x409534,%r8d
  40356d:	48 89 44 24 08       	mov    %rax,0x8(%rsp)
  403572:	be 00 10 00 00       	mov    $0x1000,%esi
  403577:	50                   	push   %rax
  403578:	31 c0                	xor    %eax,%eax
  40357a:	6a 2f                	push   $0x2f
  40357c:	4c 8b 4c 24 10       	mov    0x10(%rsp),%r9
  403581:	48 8d 7c 24 20       	lea    0x20(%rsp),%rdi
  403586:	e8 b5 ea ff ff       	call   402040 <__snprintf_chk@plt>
  40358b:	5a                   	pop    %rdx
  40358c:	59                   	pop    %rcx
  40358d:	3d ff 0f 00 00       	cmp    $0xfff,%eax
  403592:	0f 8f bf 00 00 00    	jg     403657 <dlerror@plt+0x1197>
  403598:	48 8d 7c 24 10       	lea    0x10(%rsp),%rdi
  40359d:	ff 15 75 fd 00 00    	call   *0xfd75(%rip)        # 413318 <stderr@GLIBC_2.2.5+0x4090>
  4035a3:	be 3e 95 40 00       	mov    $0x40953e,%esi
  4035a8:	4c 89 e7             	mov    %r12,%rdi
  4035ab:	49 89 c6             	mov    %rax,%r14
  4035ae:	48 89 c2             	mov    %rax,%rdx
  4035b1:	ff 15 b9 fd 00 00    	call   *0xfdb9(%rip)        # 413370 <stderr@GLIBC_2.2.5+0x40e8>
  4035b7:	4c 89 f7             	mov    %r14,%rdi
  4035ba:	ff 15 98 fe 00 00    	call   *0xfe98(%rip)        # 413458 <stderr@GLIBC_2.2.5+0x41d0>
  4035c0:	48 89 ef             	mov    %rbp,%rdi
  4035c3:	41 8b 77 0c          	mov    0xc(%r15),%esi
  4035c7:	ff 15 d3 fd 00 00    	call   *0xfdd3(%rip)        # 4133a0 <stderr@GLIBC_2.2.5+0x4118>
  4035cd:	48 89 ef             	mov    %rbp,%rdi
  4035d0:	49 89 c6             	mov    %rax,%r14
  4035d3:	e8 88 ea ff ff       	call   402060 <free@plt>
  4035d8:	4d 85 f6             	test   %r14,%r14
  4035db:	0f 84 89 00 00 00    	je     40366a <dlerror@plt+0x11aa>
  4035e1:	4c 89 f2             	mov    %r14,%rdx
  4035e4:	be 47 95 40 00       	mov    $0x409547,%esi
  4035e9:	4c 89 e7             	mov    %r12,%rdi
  4035ec:	ff 15 7e fd 00 00    	call   *0xfd7e(%rip)        # 413370 <stderr@GLIBC_2.2.5+0x40e8>
  4035f2:	4c 89 ea             	mov    %r13,%rdx
  4035f5:	4c 89 ee             	mov    %r13,%rsi
  4035f8:	4c 89 f7             	mov    %r14,%rdi
  4035fb:	ff 15 bf fd 00 00    	call   *0xfdbf(%rip)        # 4133c0 <stderr@GLIBC_2.2.5+0x4138>
  403601:	48 85 c0             	test   %rax,%rax
  403604:	0f 85 16 ff ff ff    	jne    403520 <dlerror@plt+0x1060>
  40360a:	ff 15 c0 fd 00 00    	call   *0xfdc0(%rip)        # 4133d0 <stderr@GLIBC_2.2.5+0x4148>
  403610:	48 8b 74 24 08       	mov    0x8(%rsp),%rsi
  403615:	31 c0                	xor    %eax,%eax
  403617:	bf 40 96 40 00       	mov    $0x409640,%edi
  40361c:	e8 7f fc ff ff       	call   4032a0 <dlerror@plt+0xde0>
  403621:	b8 01 00 00 00       	mov    $0x1,%eax
  403626:	eb 0a                	jmp    403632 <dlerror@plt+0x1172>
  403628:	0f 1f 84 00 00 00 00 	nopl   0x0(%rax,%rax,1)
  40362f:	00 
  403630:	31 c0                	xor    %eax,%eax
  403632:	48 81 c4 18 10 00 00 	add    $0x1018,%rsp
  403639:	5b                   	pop    %rbx
  40363a:	5d                   	pop    %rbp
  40363b:	41 5c                	pop    %r12
  40363d:	41 5d                	pop    %r13
  40363f:	41 5e                	pop    %r14
  403641:	41 5f                	pop    %r15
  403643:	c3                   	ret    
  403644:	31 c0                	xor    %eax,%eax
  403646:	bf c0 95 40 00       	mov    $0x4095c0,%edi
  40364b:	e8 50 fc ff ff       	call   4032a0 <dlerror@plt+0xde0>
  403650:	b8 ff ff ff ff       	mov    $0xffffffff,%eax
  403655:	eb db                	jmp    403632 <dlerror@plt+0x1172>
  403657:	31 c0                	xor    %eax,%eax
  403659:	bf e8 95 40 00       	mov    $0x4095e8,%edi
  40365e:	e8 3d fc ff ff       	call   4032a0 <dlerror@plt+0xde0>
  403663:	b8 ff ff ff ff       	mov    $0xffffffff,%eax
  403668:	eb c8                	jmp    403632 <dlerror@plt+0x1172>
  40366a:	48 8b 74 24 08       	mov    0x8(%rsp),%rsi
  40366f:	31 c0                	xor    %eax,%eax
  403671:	bf 18 96 40 00       	mov    $0x409618,%edi
  403676:	e8 25 fc ff ff       	call   4032a0 <dlerror@plt+0xde0>
  40367b:	ff 15 4f fd 00 00    	call   *0xfd4f(%rip)        # 4133d0 <stderr@GLIBC_2.2.5+0x4148>
  403681:	b8 ff ff ff ff       	mov    $0xffffffff,%eax
  403686:	eb aa                	jmp    403632 <dlerror@plt+0x1172>
  403688:	31 c0                	xor    %eax,%eax
  40368a:	bf 78 95 40 00       	mov    $0x409578,%edi
  40368f:	e8 0c fc ff ff       	call   4032a0 <dlerror@plt+0xde0>
  403694:	b8 ff ff ff ff       	mov    $0xffffffff,%eax
  403699:	eb 97                	jmp    403632 <dlerror@plt+0x1172>
  40369b:	31 c0                	xor    %eax,%eax
  40369d:	bf 98 95 40 00       	mov    $0x409598,%edi
  4036a2:	e8 f9 fb ff ff       	call   4032a0 <dlerror@plt+0xde0>
  4036a7:	b8 ff ff ff ff       	mov    $0xffffffff,%eax
  4036ac:	eb 84                	jmp    403632 <dlerror@plt+0x1172>
  4036ae:	66 90                	xchg   %ax,%ax
  4036b0:	41 57                	push   %r15
  4036b2:	b9 14 00 00 00       	mov    $0x14,%ecx
  4036b7:	31 c0                	xor    %eax,%eax
  4036b9:	41 56                	push   %r14
  4036bb:	41 55                	push   %r13
  4036bd:	49 89 fd             	mov    %rdi,%r13
  4036c0:	41 54                	push   %r12
  4036c2:	55                   	push   %rbp
  4036c3:	53                   	push   %rbx
  4036c4:	48 81 ec a8 30 00 00 	sub    $0x30a8,%rsp
  4036cb:	48 8b af 20 20 00 00 	mov    0x2020(%rdi),%rbp
  4036d2:	48 89 e7             	mov    %rsp,%rdi
  4036d5:	f3 48 ab             	rep stos %rax,%es:(%rdi)
  4036d8:	48 8b 9d 08 10 00 00 	mov    0x1008(%rbp),%rbx
  4036df:	48 3b 9d 10 10 00 00 	cmp    0x1010(%rbp),%rbx
  4036e6:	0f 83 42 02 00 00    	jae    40392e <dlerror@plt+0x146e>
  4036ec:	4d 8d bd 32 20 00 00 	lea    0x2032(%r13),%r15
  4036f3:	0f 1f 44 00 00       	nopl   0x0(%rax,%rax,1)
  4036f8:	0f b6 43 11          	movzbl 0x11(%rbx),%eax
  4036fc:	83 e8 5a             	sub    $0x5a,%eax
  4036ff:	3c 1e                	cmp    $0x1e,%al
  403701:	0f 87 f0 00 00 00    	ja     4037f7 <dlerror@plt+0x1337>
  403707:	0f b6 c0             	movzbl %al,%eax
  40370a:	ff 24 c5 10 97 40 00 	jmp    *0x409710(,%rax,8)
  403711:	0f 1f 80 00 00 00 00 	nopl   0x0(%rax)
  403718:	4c 8d 73 12          	lea    0x12(%rbx),%r14
  40371c:	4d 89 f4             	mov    %r14,%r12
  40371f:	49 8b bd 28 20 00 00 	mov    0x2028(%r13),%rdi
  403726:	48 85 ff             	test   %rdi,%rdi
  403729:	74 08                	je     403733 <dlerror@plt+0x1273>
  40372b:	4c 89 e6             	mov    %r12,%rsi
  40372e:	e8 9d 3a 00 00       	call   4071d0 <dlerror@plt+0x4d10>
  403733:	41 54                	push   %r12
  403735:	b9 00 10 00 00       	mov    $0x1000,%ecx
  40373a:	ba 01 00 00 00       	mov    $0x1,%edx
  40373f:	4d 89 f9             	mov    %r15,%r9
  403742:	6a 2f                	push   $0x2f
  403744:	41 b8 28 9c 40 00    	mov    $0x409c28,%r8d
  40374a:	be 00 10 00 00       	mov    $0x1000,%esi
  40374f:	31 c0                	xor    %eax,%eax
  403751:	48 8d bc 24 b0 00 00 	lea    0xb0(%rsp),%rdi
  403758:	00 
  403759:	e8 e2 e8 ff ff       	call   402040 <__snprintf_chk@plt>
  40375e:	5a                   	pop    %rdx
  40375f:	59                   	pop    %rcx
  403760:	3d ff 0f 00 00       	cmp    $0xfff,%eax
  403765:	0f 8f 65 01 00 00    	jg     4038d0 <dlerror@plt+0x1410>
  40376b:	48 8d bc 24 a0 00 00 	lea    0xa0(%rsp),%rdi
  403772:	00 
  403773:	e8 d8 11 00 00       	call   404950 <dlerror@plt+0x2490>
  403778:	83 f8 01             	cmp    $0x1,%eax
  40377b:	75 3b                	jne    4037b8 <dlerror@plt+0x12f8>
  40377d:	49 8b bd 28 20 00 00 	mov    0x2028(%r13),%rdi
  403784:	48 85 ff             	test   %rdi,%rdi
  403787:	74 0d                	je     403796 <dlerror@plt+0x12d6>
  403789:	4c 89 e6             	mov    %r12,%rsi
  40378c:	e8 1f 36 00 00       	call   406db0 <dlerror@plt+0x48f0>
  403791:	83 f8 01             	cmp    $0x1,%eax
  403794:	74 61                	je     4037f7 <dlerror@plt+0x1337>
  403796:	41 80 bd 41 30 00 00 	cmpb   $0x0,0x3041(%r13)
  40379d:	00 
  40379e:	0f 85 67 01 00 00    	jne    40390b <dlerror@plt+0x144b>
  4037a4:	48 8d b4 24 a0 00 00 	lea    0xa0(%rsp),%rsi
  4037ab:	00 
  4037ac:	bf b8 96 40 00       	mov    $0x4096b8,%edi
  4037b1:	31 c0                	xor    %eax,%eax
  4037b3:	e8 48 fa ff ff       	call   403200 <dlerror@plt+0xd40>
  4037b8:	4c 89 e2             	mov    %r12,%rdx
  4037bb:	4c 89 fe             	mov    %r15,%rsi
  4037be:	4c 89 ef             	mov    %r13,%rdi
  4037c1:	e8 7a 40 00 00       	call   407840 <dlerror@plt+0x5380>
  4037c6:	85 c0                	test   %eax,%eax
  4037c8:	0f 88 22 01 00 00    	js     4038f0 <dlerror@plt+0x1430>
  4037ce:	80 7b 11 64          	cmpb   $0x64,0x11(%rbx)
  4037d2:	0f 84 b0 00 00 00    	je     403888 <dlerror@plt+0x13c8>
  4037d8:	48 8d 94 24 a0 00 00 	lea    0xa0(%rsp),%rdx
  4037df:	00 
  4037e0:	48 89 de             	mov    %rbx,%rsi
  4037e3:	48 89 ef             	mov    %rbp,%rdi
  4037e6:	e8 c5 f2 ff ff       	call   402ab0 <dlerror@plt+0x5f0>
  4037eb:	41 89 c4             	mov    %eax,%r12d
  4037ee:	45 85 e4             	test   %r12d,%r12d
  4037f1:	0f 85 c0 00 00 00    	jne    4038b7 <dlerror@plt+0x13f7>
  4037f7:	48 89 de             	mov    %rbx,%rsi
  4037fa:	48 89 ef             	mov    %rbp,%rdi
  4037fd:	e8 1e f1 ff ff       	call   402920 <dlerror@plt+0x460>
  403802:	48 89 c3             	mov    %rax,%rbx
  403805:	48 39 85 10 10 00 00 	cmp    %rax,0x1010(%rbp)
  40380c:	0f 87 e6 fe ff ff    	ja     4036f8 <dlerror@plt+0x1238>
  403812:	48 8b 04 24          	mov    (%rsp),%rax
  403816:	45 31 e4             	xor    %r12d,%r12d
  403819:	48 89 e3             	mov    %rsp,%rbx
  40381c:	48 85 c0             	test   %rax,%rax
  40381f:	74 19                	je     40383a <dlerror@plt+0x137a>
  403821:	0f 1f 80 00 00 00 00 	nopl   0x0(%rax)
  403828:	48 89 df             	mov    %rbx,%rdi
  40382b:	48 83 c3 08          	add    $0x8,%rbx
  40382f:	e8 8c f8 ff ff       	call   4030c0 <dlerror@plt+0xc00>
  403834:	48 83 3b 00          	cmpq   $0x0,(%rbx)
  403838:	75 ee                	jne    403828 <dlerror@plt+0x1368>
  40383a:	48 81 c4 a8 30 00 00 	add    $0x30a8,%rsp
  403841:	44 89 e0             	mov    %r12d,%eax
  403844:	5b                   	pop    %rbx
  403845:	5d                   	pop    %rbp
  403846:	41 5c                	pop    %r12
  403848:	41 5d                	pop    %r13
  40384a:	41 5e                	pop    %r14
  40384c:	41 5f                	pop    %r15
  40384e:	c3                   	ret    
  40384f:	90                   	nop
  403850:	4c 8d 73 12          	lea    0x12(%rbx),%r14
  403854:	48 8d b4 24 a0 20 00 	lea    0x20a0(%rsp),%rsi
  40385b:	00 
  40385c:	4c 89 f2             	mov    %r14,%rdx
  40385f:	48 8d bc 24 a0 10 00 	lea    0x10a0(%rsp),%rdi
  403866:	00 
  403867:	e8 a4 0c 00 00       	call   404510 <dlerror@plt+0x2050>
  40386c:	41 89 c4             	mov    %eax,%r12d
  40386f:	83 f8 ff             	cmp    $0xffffffff,%eax
  403872:	74 52                	je     4038c6 <dlerror@plt+0x1406>
  403874:	4c 8d a4 24 a0 20 00 	lea    0x20a0(%rsp),%r12
  40387b:	00 
  40387c:	e9 9e fe ff ff       	jmp    40371f <dlerror@plt+0x125f>
  403881:	0f 1f 80 00 00 00 00 	nopl   0x0(%rax)
  403888:	4c 8d 84 24 a0 00 00 	lea    0xa0(%rsp),%r8
  40388f:	00 
  403890:	48 8d 8c 24 a0 20 00 	lea    0x20a0(%rsp),%rcx
  403897:	00 
  403898:	48 89 e6             	mov    %rsp,%rsi
  40389b:	4c 89 ef             	mov    %r13,%rdi
  40389e:	48 8d 94 24 a0 10 00 	lea    0x10a0(%rsp),%rdx
  4038a5:	00 
  4038a6:	e8 d5 0c 00 00       	call   404580 <dlerror@plt+0x20c0>
  4038ab:	41 89 c4             	mov    %eax,%r12d
  4038ae:	45 85 e4             	test   %r12d,%r12d
  4038b1:	0f 84 40 ff ff ff    	je     4037f7 <dlerror@plt+0x1337>
  4038b7:	4c 89 f6             	mov    %r14,%rsi
  4038ba:	bf 54 95 40 00       	mov    $0x409554,%edi
  4038bf:	31 c0                	xor    %eax,%eax
  4038c1:	e8 da f9 ff ff       	call   4032a0 <dlerror@plt+0xde0>
  4038c6:	48 8b 04 24          	mov    (%rsp),%rax
  4038ca:	e9 4a ff ff ff       	jmp    403819 <dlerror@plt+0x1359>
  4038cf:	90                   	nop
  4038d0:	31 c0                	xor    %eax,%eax
  4038d2:	bf 80 96 40 00       	mov    $0x409680,%edi
  4038d7:	41 bc ff ff ff ff    	mov    $0xffffffff,%r12d
  4038dd:	e8 be f9 ff ff       	call   4032a0 <dlerror@plt+0xde0>
  4038e2:	48 8b 04 24          	mov    (%rsp),%rax
  4038e6:	e9 2e ff ff ff       	jmp    403819 <dlerror@plt+0x1359>
  4038eb:	0f 1f 44 00 00       	nopl   0x0(%rax,%rax,1)
  4038f0:	31 c0                	xor    %eax,%eax
  4038f2:	bf e0 96 40 00       	mov    $0x4096e0,%edi
  4038f7:	41 bc ff ff ff ff    	mov    $0xffffffff,%r12d
  4038fd:	e8 9e f9 ff ff       	call   4032a0 <dlerror@plt+0xde0>
  403902:	48 8b 04 24          	mov    (%rsp),%rax
  403906:	e9 0e ff ff ff       	jmp    403819 <dlerror@plt+0x1359>
  40390b:	31 c0                	xor    %eax,%eax
  40390d:	48 8d b4 24 a0 00 00 	lea    0xa0(%rsp),%rsi
  403914:	00 
  403915:	bf b8 96 40 00       	mov    $0x4096b8,%edi
  40391a:	41 bc ff ff ff ff    	mov    $0xffffffff,%r12d
  403920:	e8 7b f9 ff ff       	call   4032a0 <dlerror@plt+0xde0>
  403925:	48 8b 04 24          	mov    (%rsp),%rax
  403929:	e9 eb fe ff ff       	jmp    403819 <dlerror@plt+0x1359>
  40392e:	45 31 e4             	xor    %r12d,%r12d
  403931:	e9 04 ff ff ff       	jmp    40383a <dlerror@plt+0x137a>
  403936:	66 2e 0f 1f 84 00 00 	cs nopw 0x0(%rax,%rax,1)
  40393d:	00 00 00 
  403940:	c3                   	ret    
  403941:	66 66 2e 0f 1f 84 00 	data16 cs nopw 0x0(%rax,%rax,1)
  403948:	00 00 00 00 
  40394c:	0f 1f 40 00          	nopl   0x0(%rax)
  403950:	55                   	push   %rbp
  403951:	48 89 fd             	mov    %rdi,%rbp
  403954:	e8 c7 26 00 00       	call   406020 <dlerror@plt+0x3b60>
  403959:	85 c0                	test   %eax,%eax
  40395b:	75 3b                	jne    403998 <dlerror@plt+0x14d8>
  40395d:	c6 85 40 30 00 00 01 	movb   $0x1,0x3040(%rbp)
  403964:	48 89 ef             	mov    %rbp,%rdi
  403967:	e8 a4 27 00 00       	call   406110 <dlerror@plt+0x3c50>
  40396c:	85 c0                	test   %eax,%eax
  40396e:	75 28                	jne    403998 <dlerror@plt+0x14d8>
  403970:	48 89 ef             	mov    %rbp,%rdi
  403973:	e8 a8 29 00 00       	call   406320 <dlerror@plt+0x3e60>
  403978:	85 c0                	test   %eax,%eax
  40397a:	75 1c                	jne    403998 <dlerror@plt+0x14d8>
  40397c:	48 89 ef             	mov    %rbp,%rdi
  40397f:	e8 dc 2a 00 00       	call   406460 <dlerror@plt+0x3fa0>
  403984:	85 c0                	test   %eax,%eax
  403986:	75 10                	jne    403998 <dlerror@plt+0x14d8>
  403988:	48 89 ef             	mov    %rbp,%rdi
  40398b:	5d                   	pop    %rbp
  40398c:	e9 1f fb ff ff       	jmp    4034b0 <dlerror@plt+0xff0>
  403991:	0f 1f 80 00 00 00 00 	nopl   0x0(%rax)
  403998:	b8 ff ff ff ff       	mov    $0xffffffff,%eax
  40399d:	5d                   	pop    %rbp
  40399e:	c3                   	ret    
  40399f:	90                   	nop
  4039a0:	53                   	push   %rbx
  4039a1:	48 89 fb             	mov    %rdi,%rbx
  4039a4:	e8 d7 2b 00 00       	call   406580 <dlerror@plt+0x40c0>
  4039a9:	48 8b bb 38 30 00 00 	mov    0x3038(%rbx),%rdi
  4039b0:	48 85 ff             	test   %rdi,%rdi
  4039b3:	74 10                	je     4039c5 <dlerror@plt+0x1505>
  4039b5:	e8 e6 46 00 00       	call   4080a0 <dlerror@plt+0x5be0>
  4039ba:	48 c7 83 38 30 00 00 	movq   $0x0,0x3038(%rbx)
  4039c1:	00 00 00 00 
  4039c5:	5b                   	pop    %rbx
  4039c6:	c3                   	ret    
  4039c7:	66 0f 1f 84 00 00 00 	nopw   0x0(%rax,%rax,1)
  4039ce:	00 00 
  4039d0:	41 54                	push   %r12
  4039d2:	45 31 e4             	xor    %r12d,%r12d
  4039d5:	55                   	push   %rbp
  4039d6:	53                   	push   %rbx
  4039d7:	48 89 fb             	mov    %rdi,%rbx
  4039da:	48 8b bf 28 20 00 00 	mov    0x2028(%rdi),%rdi
  4039e1:	48 8d ab 32 20 00 00 	lea    0x2032(%rbx),%rbp
  4039e8:	e8 13 36 00 00       	call   407000 <dlerror@plt+0x4b40>
  4039ed:	48 8d bb 28 20 00 00 	lea    0x2028(%rbx),%rdi
  4039f4:	e8 e7 34 00 00       	call   406ee0 <dlerror@plt+0x4a20>
  4039f9:	48 89 ef             	mov    %rbp,%rdi
  4039fc:	e8 3f 45 00 00       	call   407f40 <dlerror@plt+0x5a80>
  403a01:	85 c0                	test   %eax,%eax
  403a03:	78 1b                	js     403a20 <dlerror@plt+0x1560>
  403a05:	48 8d bb 20 20 00 00 	lea    0x2020(%rbx),%rdi
  403a0c:	e8 af f6 ff ff       	call   4030c0 <dlerror@plt+0xc00>
  403a11:	44 89 e0             	mov    %r12d,%eax
  403a14:	5b                   	pop    %rbx
  403a15:	5d                   	pop    %rbp
  403a16:	41 5c                	pop    %r12
  403a18:	c3                   	ret    
  403a19:	0f 1f 80 00 00 00 00 	nopl   0x0(%rax)
  403a20:	31 c0                	xor    %eax,%eax
  403a22:	80 bb 41 30 00 00 00 	cmpb   $0x0,0x3041(%rbx)
  403a29:	48 89 ee             	mov    %rbp,%rsi
  403a2c:	bf 08 98 40 00       	mov    $0x409808,%edi
  403a31:	75 07                	jne    403a3a <dlerror@plt+0x157a>
  403a33:	e8 c8 f7 ff ff       	call   403200 <dlerror@plt+0xd40>
  403a38:	eb cb                	jmp    403a05 <dlerror@plt+0x1545>
  403a3a:	e8 61 f8 ff ff       	call   4032a0 <dlerror@plt+0xde0>
  403a3f:	41 bc ff ff ff ff    	mov    $0xffffffff,%r12d
  403a45:	eb be                	jmp    403a05 <dlerror@plt+0x1545>
  403a47:	66 0f 1f 84 00 00 00 	nopw   0x0(%rax,%rax,1)
  403a4e:	00 00 
  403a50:	41 57                	push   %r15
  403a52:	ba ff 0f 00 00       	mov    $0xfff,%edx
  403a57:	41 56                	push   %r14
  403a59:	41 55                	push   %r13
  403a5b:	4c 8d af 42 30 00 00 	lea    0x3042(%rdi),%r13
  403a62:	41 54                	push   %r12
  403a64:	55                   	push   %rbp
  403a65:	48 8d 6f 20          	lea    0x20(%rdi),%rbp
  403a69:	53                   	push   %rbx
  403a6a:	48 89 ee             	mov    %rbp,%rsi
  403a6d:	48 89 fb             	mov    %rdi,%rbx
  403a70:	48 81 ec 68 10 00 00 	sub    $0x1068,%rsp
  403a77:	48 8b 47 08          	mov    0x8(%rdi),%rax
  403a7b:	bf 0a 9b 40 00       	mov    $0x409b0a,%edi
  403a80:	4c 8b 30             	mov    (%rax),%r14
  403a83:	e8 98 e6 ff ff       	call   402120 <readlink@plt>
  403a88:	48 83 f8 ff          	cmp    $0xffffffffffffffff,%rax
  403a8c:	0f 84 5e 01 00 00    	je     403bf0 <dlerror@plt+0x1730>
  403a92:	c6 44 03 20 00       	movb   $0x0,0x20(%rbx,%rax,1)
  403a97:	4c 8d 64 24 60       	lea    0x60(%rsp),%r12
  403a9c:	66 0f ef c0          	pxor   %xmm0,%xmm0
  403aa0:	48 89 ee             	mov    %rbp,%rsi
  403aa3:	4c 89 e7             	mov    %r12,%rdi
  403aa6:	c6 44 24 50 00       	movb   $0x0,0x50(%rsp)
  403aab:	c7 44 24 0c 00 00 00 	movl   $0x0,0xc(%rsp)
  403ab2:	00 
  403ab3:	0f 11 44 24 10       	movups %xmm0,0x10(%rsp)
  403ab8:	0f 11 44 24 20       	movups %xmm0,0x20(%rsp)
  403abd:	0f 11 44 24 30       	movups %xmm0,0x30(%rsp)
  403ac2:	0f 11 44 24 40       	movups %xmm0,0x40(%rsp)
  403ac7:	e8 c4 0d 00 00       	call   404890 <dlerror@plt+0x23d0>
  403acc:	31 c0                	xor    %eax,%eax
  403ace:	48 8d 4c 24 0c       	lea    0xc(%rsp),%rcx
  403ad3:	4c 89 e7             	mov    %r12,%rdi
  403ad6:	48 8d 54 24 10       	lea    0x10(%rsp),%rdx
  403adb:	be 19 9b 40 00       	mov    $0x409b19,%esi
  403ae0:	e8 8b e8 ff ff       	call   402370 <__isoc99_sscanf@plt>
  403ae5:	83 f8 02             	cmp    $0x2,%eax
  403ae8:	0f 84 55 01 00 00    	je     403c43 <dlerror@plt+0x1783>
  403aee:	48 89 ef             	mov    %rbp,%rdi
  403af1:	e8 ba f2 ff ff       	call   402db0 <dlerror@plt+0x8f0>
  403af6:	48 89 83 20 20 00 00 	mov    %rax,0x2020(%rbx)
  403afd:	48 85 c0             	test   %rax,%rax
  403b00:	0f 84 ea 04 00 00    	je     403ff0 <dlerror@plt+0x1b30>
  403b06:	48 89 e9             	mov    %rbp,%rcx
  403b09:	ba 66 bb 40 00       	mov    $0x40bb66,%edx
  403b0e:	be 00 10 00 00       	mov    $0x1000,%esi
  403b13:	31 c0                	xor    %eax,%eax
  403b15:	4c 8d bb 20 10 00 00 	lea    0x1020(%rbx),%r15
  403b1c:	4c 89 ff             	mov    %r15,%rdi
  403b1f:	e8 9c e6 ff ff       	call   4021c0 <snprintf@plt>
  403b24:	48 8b 83 20 20 00 00 	mov    0x2020(%rbx),%rax
  403b2b:	0f b6 80 18 10 00 00 	movzbl 0x1018(%rax),%eax
  403b32:	bf 2c 9b 40 00       	mov    $0x409b2c,%edi
  403b37:	88 83 30 20 00 00    	mov    %al,0x2030(%rbx)
  403b3d:	e8 0e 42 00 00       	call   407d50 <dlerror@plt+0x5890>
  403b42:	49 89 c6             	mov    %rax,%r14
  403b45:	48 85 c0             	test   %rax,%rax
  403b48:	0f 84 4f 01 00 00    	je     403c9d <dlerror@plt+0x17dd>
  403b4e:	80 38 31             	cmpb   $0x31,(%rax)
  403b51:	bf 2c 9b 40 00       	mov    $0x409b2c,%edi
  403b56:	0f 85 34 01 00 00    	jne    403c90 <dlerror@plt+0x17d0>
  403b5c:	80 78 01 00          	cmpb   $0x0,0x1(%rax)
  403b60:	0f 85 2a 01 00 00    	jne    403c90 <dlerror@plt+0x17d0>
  403b66:	e8 25 42 00 00       	call   407d90 <dlerror@plt+0x58d0>
  403b6b:	4c 89 f7             	mov    %r14,%rdi
  403b6e:	e8 ed e4 ff ff       	call   402060 <free@plt>
  403b73:	4c 89 fe             	mov    %r15,%rsi
  403b76:	bf 4a 9b 40 00       	mov    $0x409b4a,%edi
  403b7b:	e8 00 42 00 00       	call   407d80 <dlerror@plt+0x58c0>
  403b80:	bf 5c 9b 40 00       	mov    $0x409b5c,%edi
  403b85:	e8 06 42 00 00       	call   407d90 <dlerror@plt+0x58d0>
  403b8a:	bf 76 9b 40 00       	mov    $0x409b76,%edi
  403b8f:	e8 fc 41 00 00       	call   407d90 <dlerror@plt+0x58d0>
  403b94:	bf 90 9b 40 00       	mov    $0x409b90,%edi
  403b99:	e8 f2 41 00 00       	call   407d90 <dlerror@plt+0x58d0>
  403b9e:	bf a0 9b 40 00       	mov    $0x409ba0,%edi
  403ba3:	e8 e8 41 00 00       	call   407d90 <dlerror@plt+0x58d0>
  403ba8:	bf 76 9b 40 00       	mov    $0x409b76,%edi
  403bad:	e8 9e 41 00 00       	call   407d50 <dlerror@plt+0x5890>
  403bb2:	48 89 c7             	mov    %rax,%rdi
  403bb5:	48 85 c0             	test   %rax,%rax
  403bb8:	0f 84 1a 01 00 00    	je     403cd8 <dlerror@plt+0x1818>
  403bbe:	0f b6 00             	movzbl (%rax),%eax
  403bc1:	84 c0                	test   %al,%al
  403bc3:	0f 84 0f 01 00 00    	je     403cd8 <dlerror@plt+0x1818>
  403bc9:	3c 30                	cmp    $0x30,%al
  403bcb:	0f 85 5f 06 00 00    	jne    404230 <dlerror@plt+0x1d70>
  403bd1:	80 7f 01 00          	cmpb   $0x0,0x1(%rdi)
  403bd5:	0f 85 59 06 00 00    	jne    404234 <dlerror@plt+0x1d74>
  403bdb:	c6 83 31 20 00 00 01 	movb   $0x1,0x2031(%rbx)
  403be2:	e9 f8 00 00 00       	jmp    403cdf <dlerror@plt+0x181f>
  403be7:	66 0f 1f 84 00 00 00 	nopw   0x0(%rax,%rax,1)
  403bee:	00 00 
  403bf0:	4c 8d 64 24 60       	lea    0x60(%rsp),%r12
  403bf5:	66 0f ef c0          	pxor   %xmm0,%xmm0
  403bf9:	48 89 ee             	mov    %rbp,%rsi
  403bfc:	c6 44 24 50 00       	movb   $0x0,0x50(%rsp)
  403c01:	4c 89 e7             	mov    %r12,%rdi
  403c04:	c7 44 24 0c 00 00 00 	movl   $0x0,0xc(%rsp)
  403c0b:	00 
  403c0c:	0f 11 44 24 10       	movups %xmm0,0x10(%rsp)
  403c11:	0f 11 44 24 20       	movups %xmm0,0x20(%rsp)
  403c16:	0f 11 44 24 30       	movups %xmm0,0x30(%rsp)
  403c1b:	0f 11 44 24 40       	movups %xmm0,0x40(%rsp)
  403c20:	e8 6b 0c 00 00       	call   404890 <dlerror@plt+0x23d0>
  403c25:	31 c0                	xor    %eax,%eax
  403c27:	48 8d 4c 24 0c       	lea    0xc(%rsp),%rcx
  403c2c:	4c 89 e7             	mov    %r12,%rdi
  403c2f:	48 8d 54 24 10       	lea    0x10(%rsp),%rdx
  403c34:	be 19 9b 40 00       	mov    $0x409b19,%esi
  403c39:	e8 32 e7 ff ff       	call   402370 <__isoc99_sscanf@plt>
  403c3e:	83 f8 02             	cmp    $0x2,%eax
  403c41:	75 10                	jne    403c53 <dlerror@plt+0x1793>
  403c43:	ba 00 10 00 00       	mov    $0x1000,%edx
  403c48:	48 89 ee             	mov    %rbp,%rsi
  403c4b:	4c 89 ef             	mov    %r13,%rdi
  403c4e:	e8 3d e4 ff ff       	call   402090 <strncpy@plt>
  403c53:	be 2f 00 00 00       	mov    $0x2f,%esi
  403c58:	4c 89 f7             	mov    %r14,%rdi
  403c5b:	e8 40 e5 ff ff       	call   4021a0 <strchr@plt>
  403c60:	48 85 c0             	test   %rax,%rax
  403c63:	0f 84 0f 06 00 00    	je     404278 <dlerror@plt+0x1db8>
  403c69:	ba 00 10 00 00       	mov    $0x1000,%edx
  403c6e:	48 89 ee             	mov    %rbp,%rsi
  403c71:	4c 89 f7             	mov    %r14,%rdi
  403c74:	e8 87 e5 ff ff       	call   402200 <__realpath_chk@plt>
  403c79:	48 85 c0             	test   %rax,%rax
  403c7c:	0f 85 6c fe ff ff    	jne    403aee <dlerror@plt+0x162e>
  403c82:	41 bc ff ff ff ff    	mov    $0xffffffff,%r12d
  403c88:	e9 8b 02 00 00       	jmp    403f18 <dlerror@plt+0x1a58>
  403c8d:	0f 1f 00             	nopl   (%rax)
  403c90:	e8 fb 40 00 00       	call   407d90 <dlerror@plt+0x58d0>
  403c95:	4c 89 f7             	mov    %r14,%rdi
  403c98:	e8 c3 e3 ff ff       	call   402060 <free@plt>
  403c9d:	bf 4a 9b 40 00       	mov    $0x409b4a,%edi
  403ca2:	e8 a9 40 00 00       	call   407d50 <dlerror@plt+0x5890>
  403ca7:	49 89 c6             	mov    %rax,%r14
  403caa:	48 85 c0             	test   %rax,%rax
  403cad:	0f 84 c0 fe ff ff    	je     403b73 <dlerror@plt+0x16b3>
  403cb3:	4c 89 ff             	mov    %r15,%rdi
  403cb6:	48 89 c6             	mov    %rax,%rsi
  403cb9:	e8 a2 e5 ff ff       	call   402260 <strcmp@plt>
  403cbe:	4c 89 f7             	mov    %r14,%rdi
  403cc1:	85 c0                	test   %eax,%eax
  403cc3:	0f 85 a5 fe ff ff    	jne    403b6e <dlerror@plt+0x16ae>
  403cc9:	e8 92 e3 ff ff       	call   402060 <free@plt>
  403cce:	e9 d5 fe ff ff       	jmp    403ba8 <dlerror@plt+0x16e8>
  403cd3:	0f 1f 44 00 00       	nopl   0x0(%rax,%rax,1)
  403cd8:	c6 83 31 20 00 00 00 	movb   $0x0,0x2031(%rbx)
  403cdf:	e8 7c e3 ff ff       	call   402060 <free@plt>
  403ce4:	0f b6 83 31 20 00 00 	movzbl 0x2031(%rbx),%eax
  403ceb:	3c 01                	cmp    $0x1,%al
  403ced:	77 1a                	ja     403d09 <dlerror@plt+0x1849>
  403cef:	84 c0                	test   %al,%al
  403cf1:	be 08 9b 40 00       	mov    $0x409b08,%esi
  403cf6:	b8 14 90 40 00       	mov    $0x409014,%eax
  403cfb:	bf 76 9b 40 00       	mov    $0x409b76,%edi
  403d00:	48 0f 45 f0          	cmovne %rax,%rsi
  403d04:	e8 77 40 00 00       	call   407d80 <dlerror@plt+0x58c0>
  403d09:	4c 8b b3 20 20 00 00 	mov    0x2020(%rbx),%r14
  403d10:	4d 8b 86 08 10 00 00 	mov    0x1008(%r14),%r8
  403d17:	4d 3b 86 10 10 00 00 	cmp    0x1010(%r14),%r8
  403d1e:	0f 82 87 00 00 00    	jb     403dab <dlerror@plt+0x18eb>
  403d24:	e9 cf 00 00 00       	jmp    403df8 <dlerror@plt+0x1938>
  403d29:	0f 1f 80 00 00 00 00 	nopl   0x0(%rax)
  403d30:	bf d8 9b 40 00       	mov    $0x409bd8,%edi
  403d35:	b9 12 00 00 00       	mov    $0x12,%ecx
  403d3a:	48 89 c6             	mov    %rax,%rsi
  403d3d:	f3 a6                	repz cmpsb %es:(%rdi),%ds:(%rsi)
  403d3f:	0f 97 c2             	seta   %dl
  403d42:	80 da 00             	sbb    $0x0,%dl
  403d45:	84 d2                	test   %dl,%dl
  403d47:	75 0b                	jne    403d54 <dlerror@plt+0x1894>
  403d49:	49 8d 50 25          	lea    0x25(%r8),%rdx
  403d4d:	48 89 93 50 40 00 00 	mov    %rdx,0x4050(%rbx)
  403d54:	bf eb 9b 40 00       	mov    $0x409beb,%edi
  403d59:	b9 16 00 00 00       	mov    $0x16,%ecx
  403d5e:	48 89 c6             	mov    %rax,%rsi
  403d61:	f3 a6                	repz cmpsb %es:(%rdi),%ds:(%rsi)
  403d63:	0f 97 c2             	seta   %dl
  403d66:	80 da 00             	sbb    $0x0,%dl
  403d69:	84 d2                	test   %dl,%dl
  403d6b:	75 0b                	jne    403d78 <dlerror@plt+0x18b8>
  403d6d:	49 8d 50 29          	lea    0x29(%r8),%rdx
  403d71:	48 89 93 58 40 00 00 	mov    %rdx,0x4058(%rbx)
  403d78:	48 89 c6             	mov    %rax,%rsi
  403d7b:	bf 02 9c 40 00       	mov    $0x409c02,%edi
  403d80:	b9 1d 00 00 00       	mov    $0x1d,%ecx
  403d85:	f3 a6                	repz cmpsb %es:(%rdi),%ds:(%rsi)
  403d87:	0f 97 c0             	seta   %al
  403d8a:	1c 00                	sbb    $0x0,%al
  403d8c:	84 c0                	test   %al,%al
  403d8e:	0f 84 4c 02 00 00    	je     403fe0 <dlerror@plt+0x1b20>
  403d94:	4c 89 c6             	mov    %r8,%rsi
  403d97:	4c 89 f7             	mov    %r14,%rdi
  403d9a:	e8 81 eb ff ff       	call   402920 <dlerror@plt+0x460>
  403d9f:	49 89 c0             	mov    %rax,%r8
  403da2:	49 3b 86 10 10 00 00 	cmp    0x1010(%r14),%rax
  403da9:	73 4d                	jae    403df8 <dlerror@plt+0x1938>
  403dab:	41 80 78 11 6f       	cmpb   $0x6f,0x11(%r8)
  403db0:	75 e2                	jne    403d94 <dlerror@plt+0x18d4>
  403db2:	49 8d 40 12          	lea    0x12(%r8),%rax
  403db6:	bf b8 9b 40 00       	mov    $0x409bb8,%edi
  403dbb:	b9 0f 00 00 00       	mov    $0xf,%ecx
  403dc0:	48 89 c6             	mov    %rax,%rsi
  403dc3:	f3 a6                	repz cmpsb %es:(%rdi),%ds:(%rsi)
  403dc5:	0f 97 c2             	seta   %dl
  403dc8:	80 da 00             	sbb    $0x0,%dl
  403dcb:	84 d2                	test   %dl,%dl
  403dcd:	0f 85 5d ff ff ff    	jne    403d30 <dlerror@plt+0x1870>
  403dd3:	49 8d 70 22          	lea    0x22(%r8),%rsi
  403dd7:	bf c8 9b 40 00       	mov    $0x409bc8,%edi
  403ddc:	b9 0f 00 00 00       	mov    $0xf,%ecx
  403de1:	f3 a6                	repz cmpsb %es:(%rdi),%ds:(%rsi)
  403de3:	0f 97 c0             	seta   %al
  403de6:	1c 00                	sbb    $0x0,%al
  403de8:	84 c0                	test   %al,%al
  403dea:	75 a8                	jne    403d94 <dlerror@plt+0x18d4>
  403dec:	c6 83 61 40 00 00 01 	movb   $0x1,0x4061(%rbx)
  403df3:	eb 9f                	jmp    403d94 <dlerror@plt+0x18d4>
  403df5:	0f 1f 00             	nopl   (%rax)
  403df8:	bf 00 99 40 00       	mov    $0x409900,%edi
  403dfd:	e8 4e 3f 00 00       	call   407d50 <dlerror@plt+0x5890>
  403e02:	48 89 c7             	mov    %rax,%rdi
  403e05:	48 85 c0             	test   %rax,%rax
  403e08:	74 15                	je     403e1f <dlerror@plt+0x195f>
  403e0a:	0f b6 00             	movzbl (%rax),%eax
  403e0d:	83 e8 30             	sub    $0x30,%eax
  403e10:	75 04                	jne    403e16 <dlerror@plt+0x1956>
  403e12:	0f b6 47 01          	movzbl 0x1(%rdi),%eax
  403e16:	85 c0                	test   %eax,%eax
  403e18:	0f 95 83 41 30 00 00 	setne  0x3041(%rbx)
  403e1f:	e8 3c e2 ff ff       	call   402060 <free@plt>
  403e24:	bf a0 9b 40 00       	mov    $0x409ba0,%edi
  403e29:	e8 22 3f 00 00       	call   407d50 <dlerror@plt+0x5890>
  403e2e:	49 89 c6             	mov    %rax,%r14
  403e31:	48 85 c0             	test   %rax,%rax
  403e34:	74 13                	je     403e49 <dlerror@plt+0x1989>
  403e36:	48 89 c6             	mov    %rax,%rsi
  403e39:	31 c9                	xor    %ecx,%ecx
  403e3b:	31 d2                	xor    %edx,%edx
  403e3d:	bf 0f 00 00 00       	mov    $0xf,%edi
  403e42:	31 c0                	xor    %eax,%eax
  403e44:	e8 87 e4 ff ff       	call   4022d0 <prctl@plt>
  403e49:	4c 89 f7             	mov    %r14,%rdi
  403e4c:	e8 0f e2 ff ff       	call   402060 <free@plt>
  403e51:	80 bb 30 20 00 00 00 	cmpb   $0x0,0x2030(%rbx)
  403e58:	0f 84 9a 02 00 00    	je     4040f8 <dlerror@plt+0x1c38>
  403e5e:	80 bb 31 20 00 00 00 	cmpb   $0x0,0x2031(%rbx)
  403e65:	0f 85 35 02 00 00    	jne    4040a0 <dlerror@plt+0x1be0>
  403e6b:	48 89 df             	mov    %rbx,%rdi
  403e6e:	e8 2d 3f 00 00       	call   407da0 <dlerror@plt+0x58e0>
  403e73:	85 c0                	test   %eax,%eax
  403e75:	0f 88 99 05 00 00    	js     404414 <dlerror@plt+0x1f54>
  403e7b:	48 8b 83 20 20 00 00 	mov    0x2020(%rbx),%rax
  403e82:	48 83 b8 20 10 00 00 	cmpq   $0x0,0x1020(%rax)
  403e89:	00 
  403e8a:	0f 84 40 01 00 00    	je     403fd0 <dlerror@plt+0x1b10>
  403e90:	bf 10 9a 40 00       	mov    $0x409a10,%edi
  403e95:	e8 b6 3e 00 00       	call   407d50 <dlerror@plt+0x5890>
  403e9a:	48 89 c7             	mov    %rax,%rdi
  403e9d:	48 85 c0             	test   %rax,%rax
  403ea0:	0f 84 8f 00 00 00    	je     403f35 <dlerror@plt+0x1a75>
  403ea6:	80 38 31             	cmpb   $0x31,(%rax)
  403ea9:	0f 85 81 00 00 00    	jne    403f30 <dlerror@plt+0x1a70>
  403eaf:	44 0f b6 68 01       	movzbl 0x1(%rax),%r13d
  403eb4:	e8 a7 e1 ff ff       	call   402060 <free@plt>
  403eb9:	45 84 ed             	test   %r13b,%r13b
  403ebc:	75 77                	jne    403f35 <dlerror@plt+0x1a75>
  403ebe:	be 08 9b 40 00       	mov    $0x409b08,%esi
  403ec3:	bf 90 9b 40 00       	mov    $0x409b90,%edi
  403ec8:	e8 b3 3e 00 00       	call   407d80 <dlerror@plt+0x58c0>
  403ecd:	0f b6 83 30 20 00 00 	movzbl 0x2030(%rbx),%eax
  403ed4:	48 89 df             	mov    %rbx,%rdi
  403ed7:	84 c0                	test   %al,%al
  403ed9:	74 0d                	je     403ee8 <dlerror@plt+0x1a28>
  403edb:	80 bb 31 20 00 00 00 	cmpb   $0x0,0x2031(%rbx)
  403ee2:	0f 84 b8 02 00 00    	je     4041a0 <dlerror@plt+0x1ce0>
  403ee8:	e8 53 fa ff ff       	call   403940 <dlerror@plt+0x1480>
  403eed:	48 89 df             	mov    %rbx,%rdi
  403ef0:	e8 5b fa ff ff       	call   403950 <dlerror@plt+0x1490>
  403ef5:	48 89 df             	mov    %rbx,%rdi
  403ef8:	41 89 c4             	mov    %eax,%r12d
  403efb:	e8 a0 fa ff ff       	call   4039a0 <dlerror@plt+0x14e0>
  403f00:	48 8b bb 28 20 00 00 	mov    0x2028(%rbx),%rdi
  403f07:	e8 f4 30 00 00       	call   407000 <dlerror@plt+0x4b40>
  403f0c:	48 8d bb 28 20 00 00 	lea    0x2028(%rbx),%rdi
  403f13:	e8 c8 2f 00 00       	call   406ee0 <dlerror@plt+0x4a20>
  403f18:	48 81 c4 68 10 00 00 	add    $0x1068,%rsp
  403f1f:	44 89 e0             	mov    %r12d,%eax
  403f22:	5b                   	pop    %rbx
  403f23:	5d                   	pop    %rbp
  403f24:	41 5c                	pop    %r12
  403f26:	41 5d                	pop    %r13
  403f28:	41 5e                	pop    %r14
  403f2a:	41 5f                	pop    %r15
  403f2c:	c3                   	ret    
  403f2d:	0f 1f 00             	nopl   (%rax)
  403f30:	e8 2b e1 ff ff       	call   402060 <free@plt>
  403f35:	0f b6 93 31 20 00 00 	movzbl 0x2031(%rbx),%edx
  403f3c:	80 fa 01             	cmp    $0x1,%dl
  403f3f:	0f 87 79 ff ff ff    	ja     403ebe <dlerror@plt+0x19fe>
  403f45:	83 e2 01             	and    $0x1,%edx
  403f48:	0f b6 83 30 20 00 00 	movzbl 0x2030(%rbx),%eax
  403f4f:	75 04                	jne    403f55 <dlerror@plt+0x1a95>
  403f51:	84 c0                	test   %al,%al
  403f53:	75 0f                	jne    403f64 <dlerror@plt+0x1aa4>
  403f55:	66 81 bb 30 20 00 00 	cmpw   $0x100,0x2030(%rbx)
  403f5c:	00 01 
  403f5e:	0f 85 70 ff ff ff    	jne    403ed4 <dlerror@plt+0x1a14>
  403f64:	31 c0                	xor    %eax,%eax
  403f66:	e8 35 2f 00 00       	call   406ea0 <dlerror@plt+0x49e0>
  403f6b:	48 89 de             	mov    %rbx,%rsi
  403f6e:	48 89 83 28 20 00 00 	mov    %rax,0x2028(%rbx)
  403f75:	48 89 c7             	mov    %rax,%rdi
  403f78:	e8 a3 2a 00 00       	call   406a20 <dlerror@plt+0x4560>
  403f7d:	85 c0                	test   %eax,%eax
  403f7f:	0f 85 3d 04 00 00    	jne    4043c2 <dlerror@plt+0x1f02>
  403f85:	80 bb 30 20 00 00 00 	cmpb   $0x0,0x2030(%rbx)
  403f8c:	74 17                	je     403fa5 <dlerror@plt+0x1ae5>
  403f8e:	48 8b bb 28 20 00 00 	mov    0x2028(%rbx),%rdi
  403f95:	48 89 de             	mov    %rbx,%rsi
  403f98:	e8 63 2c 00 00       	call   406c00 <dlerror@plt+0x4740>
  403f9d:	85 c0                	test   %eax,%eax
  403f9f:	0f 85 2b 04 00 00    	jne    4043d0 <dlerror@plt+0x1f10>
  403fa5:	48 8b bb 28 20 00 00 	mov    0x2028(%rbx),%rdi
  403fac:	e8 6f 2e 00 00       	call   406e20 <dlerror@plt+0x4960>
  403fb1:	85 c0                	test   %eax,%eax
  403fb3:	0f 85 fb 03 00 00    	jne    4043b4 <dlerror@plt+0x1ef4>
  403fb9:	48 8b bb 28 20 00 00 	mov    0x2028(%rbx),%rdi
  403fc0:	48 89 ee             	mov    %rbp,%rsi
  403fc3:	e8 48 31 00 00       	call   407110 <dlerror@plt+0x4c50>
  403fc8:	85 c0                	test   %eax,%eax
  403fca:	0f 85 b0 03 00 00    	jne    404380 <dlerror@plt+0x1ec0>
  403fd0:	0f b6 83 30 20 00 00 	movzbl 0x2030(%rbx),%eax
  403fd7:	e9 f8 fe ff ff       	jmp    403ed4 <dlerror@plt+0x1a14>
  403fdc:	0f 1f 40 00          	nopl   0x0(%rax)
  403fe0:	c6 83 60 40 00 00 01 	movb   $0x1,0x4060(%rbx)
  403fe7:	e9 a8 fd ff ff       	jmp    403d94 <dlerror@plt+0x18d4>
  403fec:	0f 1f 40 00          	nopl   0x0(%rax)
  403ff0:	be 1d 90 40 00       	mov    $0x40901d,%esi
  403ff5:	48 89 ef             	mov    %rbp,%rdi
  403ff8:	e8 23 e4 ff ff       	call   402420 <fopen@plt>
  403ffd:	49 89 c6             	mov    %rax,%r14
  404000:	48 85 c0             	test   %rax,%rax
  404003:	0f 84 27 03 00 00    	je     404330 <dlerror@plt+0x1e70>
  404009:	48 8b 05 f0 78 00 00 	mov    0x78f0(%rip),%rax        # 40b900 <dlerror@plt+0x9440>
  404010:	ba 08 00 00 00       	mov    $0x8,%edx
  404015:	4c 89 e6             	mov    %r12,%rsi
  404018:	4c 89 f7             	mov    %r14,%rdi
  40401b:	48 89 44 24 60       	mov    %rax,0x60(%rsp)
  404020:	48 c1 e8 18          	shr    $0x18,%rax
  404024:	83 c0 0d             	add    $0xd,%eax
  404027:	88 44 24 63          	mov    %al,0x63(%rsp)
  40402b:	e8 80 3a 00 00       	call   407ab0 <dlerror@plt+0x55f0>
  404030:	48 85 c0             	test   %rax,%rax
  404033:	0f 84 ef 02 00 00    	je     404328 <dlerror@plt+0x1e68>
  404039:	31 c0                	xor    %eax,%eax
  40403b:	49 89 e9             	mov    %rbp,%r9
  40403e:	41 b8 33 9c 40 00    	mov    $0x409c33,%r8d
  404044:	b9 00 10 00 00       	mov    $0x1000,%ecx
  404049:	4c 8d bb 20 10 00 00 	lea    0x1020(%rbx),%r15
  404050:	ba 01 00 00 00       	mov    $0x1,%edx
  404055:	be 00 10 00 00       	mov    $0x1000,%esi
  40405a:	4c 89 ff             	mov    %r15,%rdi
  40405d:	e8 de df ff ff       	call   402040 <__snprintf_chk@plt>
  404062:	3d ff 0f 00 00       	cmp    $0xfff,%eax
  404067:	0f 8f 15 fc ff ff    	jg     403c82 <dlerror@plt+0x17c2>
  40406d:	4c 89 ff             	mov    %r15,%rdi
  404070:	e8 3b ed ff ff       	call   402db0 <dlerror@plt+0x8f0>
  404075:	48 89 83 20 20 00 00 	mov    %rax,0x2020(%rbx)
  40407c:	48 85 c0             	test   %rax,%rax
  40407f:	0f 85 a6 fa ff ff    	jne    403b2b <dlerror@plt+0x166b>
  404085:	4c 89 fe             	mov    %r15,%rsi
  404088:	bf 88 98 40 00       	mov    $0x409888,%edi
  40408d:	41 83 cc ff          	or     $0xffffffff,%r12d
  404091:	e8 0a f2 ff ff       	call   4032a0 <dlerror@plt+0xde0>
  404096:	e9 7d fe ff ff       	jmp    403f18 <dlerror@plt+0x1a58>
  40409b:	0f 1f 44 00 00       	nopl   0x0(%rax,%rax,1)
  4040a0:	bf 5c 9b 40 00       	mov    $0x409b5c,%edi
  4040a5:	e8 a6 3c 00 00       	call   407d50 <dlerror@plt+0x5890>
  4040aa:	49 89 c5             	mov    %rax,%r13
  4040ad:	48 85 c0             	test   %rax,%rax
  4040b0:	0f 84 28 03 00 00    	je     4043de <dlerror@plt+0x1f1e>
  4040b6:	80 38 00             	cmpb   $0x0,(%rax)
  4040b9:	0f 84 1f 03 00 00    	je     4043de <dlerror@plt+0x1f1e>
  4040bf:	48 89 c1             	mov    %rax,%rcx
  4040c2:	48 8d bb 32 20 00 00 	lea    0x2032(%rbx),%rdi
  4040c9:	31 c0                	xor    %eax,%eax
  4040cb:	ba 66 bb 40 00       	mov    $0x40bb66,%edx
  4040d0:	be 00 10 00 00       	mov    $0x1000,%esi
  4040d5:	e8 e6 e0 ff ff       	call   4021c0 <snprintf@plt>
  4040da:	3d ff 0f 00 00       	cmp    $0xfff,%eax
  4040df:	0f 8f 10 03 00 00    	jg     4043f5 <dlerror@plt+0x1f35>
  4040e5:	4c 89 ef             	mov    %r13,%rdi
  4040e8:	e8 73 df ff ff       	call   402060 <free@plt>
  4040ed:	e9 89 fd ff ff       	jmp    403e7b <dlerror@plt+0x19bb>
  4040f2:	66 0f 1f 44 00 00    	nopw   0x0(%rax,%rax,1)
  4040f8:	48 89 ee             	mov    %rbp,%rsi
  4040fb:	4c 89 e7             	mov    %r12,%rdi
  4040fe:	4c 8d b3 32 20 00 00 	lea    0x2032(%rbx),%r14
  404105:	e8 26 07 00 00       	call   404830 <dlerror@plt+0x2370>
  40410a:	48 8b 93 58 40 00 00 	mov    0x4058(%rbx),%rdx
  404111:	48 85 d2             	test   %rdx,%rdx
  404114:	0f 84 d6 01 00 00    	je     4042f0 <dlerror@plt+0x1e30>
  40411a:	4c 89 e6             	mov    %r12,%rsi
  40411d:	4c 89 f7             	mov    %r14,%rdi
  404120:	e8 8b 07 00 00       	call   4048b0 <dlerror@plt+0x23f0>
  404125:	80 bb 31 20 00 00 00 	cmpb   $0x0,0x2031(%rbx)
  40412c:	0f 85 49 fd ff ff    	jne    403e7b <dlerror@plt+0x19bb>
  404132:	4c 89 f7             	mov    %r14,%rdi
  404135:	e8 76 3f 00 00       	call   4080b0 <dlerror@plt+0x5bf0>
  40413a:	85 c0                	test   %eax,%eax
  40413c:	0f 88 40 fb ff ff    	js     403c82 <dlerror@plt+0x17c2>
  404142:	80 bb 42 30 00 00 00 	cmpb   $0x0,0x3042(%rbx)
  404149:	48 8b 73 08          	mov    0x8(%rbx),%rsi
  40414d:	0f 84 b9 01 00 00    	je     40430c <dlerror@plt+0x1e4c>
  404153:	8b 3b                	mov    (%rbx),%edi
  404155:	4c 89 ea             	mov    %r13,%rdx
  404158:	e8 83 44 00 00       	call   4085e0 <dlerror@plt+0x6120>
  40415d:	48 89 c6             	mov    %rax,%rsi
  404160:	48 85 c0             	test   %rax,%rax
  404163:	0f 84 c2 02 00 00    	je     40442b <dlerror@plt+0x1f6b>
  404169:	4c 89 ef             	mov    %r13,%rdi
  40416c:	e8 ef e2 ff ff       	call   402460 <execvp@plt>
  404171:	85 c0                	test   %eax,%eax
  404173:	0f 89 02 fd ff ff    	jns    403e7b <dlerror@plt+0x19bb>
  404179:	e8 f2 de ff ff       	call   402070 <__errno_location@plt>
  40417e:	8b 38                	mov    (%rax),%edi
  404180:	e8 0b e3 ff ff       	call   402490 <strerror@plt>
  404185:	bf e8 99 40 00       	mov    $0x4099e8,%edi
  40418a:	48 89 c6             	mov    %rax,%rsi
  40418d:	31 c0                	xor    %eax,%eax
  40418f:	e8 0c f1 ff ff       	call   4032a0 <dlerror@plt+0xde0>
  404194:	e9 e9 fa ff ff       	jmp    403c82 <dlerror@plt+0x17c2>
  404199:	0f 1f 80 00 00 00 00 	nopl   0x0(%rax)
  4041a0:	e8 0b f5 ff ff       	call   4036b0 <dlerror@plt+0x11f0>
  4041a5:	85 c0                	test   %eax,%eax
  4041a7:	0f 88 d5 fa ff ff    	js     403c82 <dlerror@plt+0x17c2>
  4041ad:	31 c9                	xor    %ecx,%ecx
  4041af:	31 d2                	xor    %edx,%edx
  4041b1:	31 c0                	xor    %eax,%eax
  4041b3:	4c 89 e6             	mov    %r12,%rsi
  4041b6:	bf 10 00 00 00       	mov    $0x10,%edi
  4041bb:	e8 10 e1 ff ff       	call   4022d0 <prctl@plt>
  4041c0:	85 c0                	test   %eax,%eax
  4041c2:	0f 84 88 00 00 00    	je     404250 <dlerror@plt+0x1d90>
  4041c8:	48 8d ab 32 20 00 00 	lea    0x2032(%rbx),%rbp
  4041cf:	48 89 ef             	mov    %rbp,%rdi
  4041d2:	e8 d9 3e 00 00       	call   4080b0 <dlerror@plt+0x5bf0>
  4041d7:	83 f8 ff             	cmp    $0xffffffff,%eax
  4041da:	0f 84 a2 fa ff ff    	je     403c82 <dlerror@plt+0x17c2>
  4041e0:	48 89 ee             	mov    %rbp,%rsi
  4041e3:	bf 5c 9b 40 00       	mov    $0x409b5c,%edi
  4041e8:	e8 93 3b 00 00       	call   407d80 <dlerror@plt+0x58c0>
  4041ed:	48 89 df             	mov    %rbx,%rdi
  4041f0:	e8 cb 3f 00 00       	call   4081c0 <dlerror@plt+0x5d00>
  4041f5:	48 89 df             	mov    %rbx,%rdi
  4041f8:	41 89 c4             	mov    %eax,%r12d
  4041fb:	e8 d0 f7 ff ff       	call   4039d0 <dlerror@plt+0x1510>
  404200:	85 c0                	test   %eax,%eax
  404202:	b8 ff ff ff ff       	mov    $0xffffffff,%eax
  404207:	44 0f 48 e0          	cmovs  %eax,%r12d
  40420b:	8b 83 48 40 00 00    	mov    0x4048(%rbx),%eax
  404211:	85 c0                	test   %eax,%eax
  404213:	0f 84 ff fc ff ff    	je     403f18 <dlerror@plt+0x1a58>
  404219:	8b bb 4c 40 00 00    	mov    0x404c(%rbx),%edi
  40421f:	e8 2c de ff ff       	call   402050 <raise@plt>
  404224:	e9 ef fc ff ff       	jmp    403f18 <dlerror@plt+0x1a58>
  404229:	0f 1f 80 00 00 00 00 	nopl   0x0(%rax)
  404230:	3c 31                	cmp    $0x31,%al
  404232:	74 2e                	je     404262 <dlerror@plt+0x1da2>
  404234:	48 89 fe             	mov    %rdi,%rsi
  404237:	31 c0                	xor    %eax,%eax
  404239:	bf d0 98 40 00       	mov    $0x4098d0,%edi
  40423e:	41 83 cc ff          	or     $0xffffffff,%r12d
  404242:	e8 59 f0 ff ff       	call   4032a0 <dlerror@plt+0xde0>
  404247:	e9 cc fc ff ff       	jmp    403f18 <dlerror@plt+0x1a58>
  40424c:	0f 1f 40 00          	nopl   0x0(%rax)
  404250:	4c 89 e6             	mov    %r12,%rsi
  404253:	bf a0 9b 40 00       	mov    $0x409ba0,%edi
  404258:	e8 23 3b 00 00       	call   407d80 <dlerror@plt+0x58c0>
  40425d:	e9 66 ff ff ff       	jmp    4041c8 <dlerror@plt+0x1d08>
  404262:	80 7f 01 00          	cmpb   $0x0,0x1(%rdi)
  404266:	75 cc                	jne    404234 <dlerror@plt+0x1d74>
  404268:	c6 83 31 20 00 00 02 	movb   $0x2,0x2031(%rbx)
  40426f:	e9 6b fa ff ff       	jmp    403cdf <dlerror@plt+0x181f>
  404274:	0f 1f 40 00          	nopl   0x0(%rax)
  404278:	bf 49 bb 40 00       	mov    $0x40bb49,%edi
  40427d:	e8 ce 3a 00 00       	call   407d50 <dlerror@plt+0x5890>
  404282:	49 89 c7             	mov    %rax,%r15
  404285:	48 85 c0             	test   %rax,%rax
  404288:	0f 84 db f9 ff ff    	je     403c69 <dlerror@plt+0x17a9>
  40428e:	be 2a 9b 40 00       	mov    $0x409b2a,%esi
  404293:	48 89 c7             	mov    %rax,%rdi
  404296:	e8 95 e1 ff ff       	call   402430 <strtok@plt>
  40429b:	48 89 c6             	mov    %rax,%rsi
  40429e:	48 85 c0             	test   %rax,%rax
  4042a1:	74 39                	je     4042dc <dlerror@plt+0x1e1c>
  4042a3:	0f 1f 44 00 00       	nopl   0x0(%rax,%rax,1)
  4042a8:	4c 89 f2             	mov    %r14,%rdx
  4042ab:	4c 89 e7             	mov    %r12,%rdi
  4042ae:	e8 fd 05 00 00       	call   4048b0 <dlerror@plt+0x23f0>
  4042b3:	48 85 c0             	test   %rax,%rax
  4042b6:	74 10                	je     4042c8 <dlerror@plt+0x1e08>
  4042b8:	4c 89 e7             	mov    %r12,%rdi
  4042bb:	e8 90 06 00 00       	call   404950 <dlerror@plt+0x2490>
  4042c0:	85 c0                	test   %eax,%eax
  4042c2:	0f 85 88 00 00 00    	jne    404350 <dlerror@plt+0x1e90>
  4042c8:	be 2a 9b 40 00       	mov    $0x409b2a,%esi
  4042cd:	31 ff                	xor    %edi,%edi
  4042cf:	e8 5c e1 ff ff       	call   402430 <strtok@plt>
  4042d4:	48 89 c6             	mov    %rax,%rsi
  4042d7:	48 85 c0             	test   %rax,%rax
  4042da:	75 cc                	jne    4042a8 <dlerror@plt+0x1de8>
  4042dc:	4c 89 ff             	mov    %r15,%rdi
  4042df:	e8 7c dd ff ff       	call   402060 <free@plt>
  4042e4:	e9 80 f9 ff ff       	jmp    403c69 <dlerror@plt+0x17a9>
  4042e9:	0f 1f 80 00 00 00 00 	nopl   0x0(%rax)
  4042f0:	4c 89 e1             	mov    %r12,%rcx
  4042f3:	ba 66 bb 40 00       	mov    $0x40bb66,%edx
  4042f8:	be 00 10 00 00       	mov    $0x1000,%esi
  4042fd:	4c 89 f7             	mov    %r14,%rdi
  404300:	31 c0                	xor    %eax,%eax
  404302:	e8 b9 de ff ff       	call   4021c0 <snprintf@plt>
  404307:	e9 19 fe ff ff       	jmp    404125 <dlerror@plt+0x1c65>
  40430c:	48 89 ef             	mov    %rbp,%rdi
  40430f:	e8 4c e1 ff ff       	call   402460 <execvp@plt>
  404314:	85 c0                	test   %eax,%eax
  404316:	0f 89 5f fb ff ff    	jns    403e7b <dlerror@plt+0x19bb>
  40431c:	e9 58 fe ff ff       	jmp    404179 <dlerror@plt+0x1cb9>
  404321:	0f 1f 80 00 00 00 00 	nopl   0x0(%rax)
  404328:	4c 89 f7             	mov    %r14,%rdi
  40432b:	e8 20 de ff ff       	call   402150 <fclose@plt>
  404330:	48 89 ee             	mov    %rbp,%rsi
  404333:	bf 38 98 40 00       	mov    $0x409838,%edi
  404338:	31 c0                	xor    %eax,%eax
  40433a:	41 bc ff ff ff ff    	mov    $0xffffffff,%r12d
  404340:	e8 5b ef ff ff       	call   4032a0 <dlerror@plt+0xde0>
  404345:	e9 ce fb ff ff       	jmp    403f18 <dlerror@plt+0x1a58>
  40434a:	66 0f 1f 44 00 00    	nopw   0x0(%rax,%rax,1)
  404350:	4c 89 ff             	mov    %r15,%rdi
  404353:	e8 08 dd ff ff       	call   402060 <free@plt>
  404358:	ba 00 10 00 00       	mov    $0x1000,%edx
  40435d:	48 89 ee             	mov    %rbp,%rsi
  404360:	4c 89 e7             	mov    %r12,%rdi
  404363:	e8 98 de ff ff       	call   402200 <__realpath_chk@plt>
  404368:	48 85 c0             	test   %rax,%rax
  40436b:	0f 85 7d f7 ff ff    	jne    403aee <dlerror@plt+0x162e>
  404371:	e9 0c f9 ff ff       	jmp    403c82 <dlerror@plt+0x17c2>
  404376:	66 2e 0f 1f 84 00 00 	cs nopw 0x0(%rax,%rax,1)
  40437d:	00 00 00 
  404380:	bf e8 9a 40 00       	mov    $0x409ae8,%edi
  404385:	31 c0                	xor    %eax,%eax
  404387:	e8 74 ee ff ff       	call   403200 <dlerror@plt+0xd40>
  40438c:	0f 1f 40 00          	nopl   0x0(%rax)
  404390:	48 8b bb 28 20 00 00 	mov    0x2028(%rbx),%rdi
  404397:	e8 64 2c 00 00       	call   407000 <dlerror@plt+0x4b40>
  40439c:	48 8d bb 28 20 00 00 	lea    0x2028(%rbx),%rdi
  4043a3:	e8 38 2b 00 00       	call   406ee0 <dlerror@plt+0x4a20>
  4043a8:	0f b6 83 30 20 00 00 	movzbl 0x2030(%rbx),%eax
  4043af:	e9 20 fb ff ff       	jmp    403ed4 <dlerror@plt+0x1a14>
  4043b4:	bf a8 9a 40 00       	mov    $0x409aa8,%edi
  4043b9:	31 c0                	xor    %eax,%eax
  4043bb:	e8 40 ee ff ff       	call   403200 <dlerror@plt+0xd40>
  4043c0:	eb ce                	jmp    404390 <dlerror@plt+0x1ed0>
  4043c2:	bf 38 9a 40 00       	mov    $0x409a38,%edi
  4043c7:	31 c0                	xor    %eax,%eax
  4043c9:	e8 32 ee ff ff       	call   403200 <dlerror@plt+0xd40>
  4043ce:	eb c0                	jmp    404390 <dlerror@plt+0x1ed0>
  4043d0:	bf 68 9a 40 00       	mov    $0x409a68,%edi
  4043d5:	31 c0                	xor    %eax,%eax
  4043d7:	e8 24 ee ff ff       	call   403200 <dlerror@plt+0xd40>
  4043dc:	eb b2                	jmp    404390 <dlerror@plt+0x1ed0>
  4043de:	bf 48 99 40 00       	mov    $0x409948,%edi
  4043e3:	31 c0                	xor    %eax,%eax
  4043e5:	41 bc ff ff ff ff    	mov    $0xffffffff,%r12d
  4043eb:	e8 b0 ee ff ff       	call   4032a0 <dlerror@plt+0xde0>
  4043f0:	e9 23 fb ff ff       	jmp    403f18 <dlerror@plt+0x1a58>
  4043f5:	bf 88 99 40 00       	mov    $0x409988,%edi
  4043fa:	31 c0                	xor    %eax,%eax
  4043fc:	41 bc ff ff ff ff    	mov    $0xffffffff,%r12d
  404402:	e8 99 ee ff ff       	call   4032a0 <dlerror@plt+0xde0>
  404407:	4c 89 ef             	mov    %r13,%rdi
  40440a:	e8 51 dc ff ff       	call   402060 <free@plt>
  40440f:	e9 04 fb ff ff       	jmp    403f18 <dlerror@plt+0x1a58>
  404414:	bf 20 99 40 00       	mov    $0x409920,%edi
  404419:	31 c0                	xor    %eax,%eax
  40441b:	41 bc ff ff ff ff    	mov    $0xffffffff,%r12d
  404421:	e8 7a ee ff ff       	call   4032a0 <dlerror@plt+0xde0>
  404426:	e9 ed fa ff ff       	jmp    403f18 <dlerror@plt+0x1a58>
  40442b:	bf b0 99 40 00       	mov    $0x4099b0,%edi
  404430:	31 c0                	xor    %eax,%eax
  404432:	e8 69 ee ff ff       	call   4032a0 <dlerror@plt+0xde0>
  404437:	e9 46 f8 ff ff       	jmp    403c82 <dlerror@plt+0x17c2>
  40443c:	0f 1f 40 00          	nopl   0x0(%rax)
  404440:	55                   	push   %rbp
  404441:	48 89 fd             	mov    %rdi,%rbp
  404444:	48 81 ec d0 00 00 00 	sub    $0xd0,%rsp
  40444b:	48 89 54 24 30       	mov    %rdx,0x30(%rsp)
  404450:	48 89 4c 24 38       	mov    %rcx,0x38(%rsp)
  404455:	4c 89 44 24 40       	mov    %r8,0x40(%rsp)
  40445a:	4c 89 4c 24 48       	mov    %r9,0x48(%rsp)
  40445f:	84 c0                	test   %al,%al
  404461:	74 37                	je     40449a <dlerror@plt+0x1fda>
  404463:	0f 29 44 24 50       	movaps %xmm0,0x50(%rsp)
  404468:	0f 29 4c 24 60       	movaps %xmm1,0x60(%rsp)
  40446d:	0f 29 54 24 70       	movaps %xmm2,0x70(%rsp)
  404472:	0f 29 9c 24 80 00 00 	movaps %xmm3,0x80(%rsp)
  404479:	00 
  40447a:	0f 29 a4 24 90 00 00 	movaps %xmm4,0x90(%rsp)
  404481:	00 
  404482:	0f 29 ac 24 a0 00 00 	movaps %xmm5,0xa0(%rsp)
  404489:	00 
  40448a:	0f 29 b4 24 b0 00 00 	movaps %xmm6,0xb0(%rsp)
  404491:	00 
  404492:	0f 29 bc 24 c0 00 00 	movaps %xmm7,0xc0(%rsp)
  404499:	00 
  40449a:	49 89 f0             	mov    %rsi,%r8
  40449d:	4c 8d 4c 24 08       	lea    0x8(%rsp),%r9
  4044a2:	ba 01 00 00 00       	mov    $0x1,%edx
  4044a7:	48 89 ef             	mov    %rbp,%rdi
  4044aa:	48 8d 84 24 e0 00 00 	lea    0xe0(%rsp),%rax
  4044b1:	00 
  4044b2:	48 c7 c1 ff ff ff ff 	mov    $0xffffffffffffffff,%rcx
  4044b9:	be 00 10 00 00       	mov    $0x1000,%esi
  4044be:	c7 44 24 08 10 00 00 	movl   $0x10,0x8(%rsp)
  4044c5:	00 
  4044c6:	48 89 44 24 10       	mov    %rax,0x10(%rsp)
  4044cb:	48 8d 44 24 20       	lea    0x20(%rsp),%rax
  4044d0:	c7 44 24 0c 30 00 00 	movl   $0x30,0xc(%rsp)
  4044d7:	00 
  4044d8:	48 89 44 24 18       	mov    %rax,0x18(%rsp)
  4044dd:	e8 ae de ff ff       	call   402390 <__vsnprintf_chk@plt>
  4044e2:	3d ff 0f 00 00       	cmp    $0xfff,%eax
  4044e7:	7f 17                	jg     404500 <dlerror@plt+0x2040>
  4044e9:	48 89 ef             	mov    %rbp,%rdi
  4044ec:	e8 5f 04 00 00       	call   404950 <dlerror@plt+0x2490>
  4044f1:	48 81 c4 d0 00 00 00 	add    $0xd0,%rsp
  4044f8:	5d                   	pop    %rbp
  4044f9:	c3                   	ret    
  4044fa:	66 0f 1f 44 00 00    	nopw   0x0(%rax,%rax,1)
  404500:	b8 ff ff ff ff       	mov    $0xffffffff,%eax
  404505:	eb ea                	jmp    4044f1 <dlerror@plt+0x2031>
  404507:	66 0f 1f 84 00 00 00 	nopw   0x0(%rax,%rax,1)
  40450e:	00 00 
  404510:	55                   	push   %rbp
  404511:	48 89 d1             	mov    %rdx,%rcx
  404514:	48 89 f5             	mov    %rsi,%rbp
  404517:	31 c0                	xor    %eax,%eax
  404519:	53                   	push   %rbx
  40451a:	ba 66 bb 40 00       	mov    $0x40bb66,%edx
  40451f:	be 00 10 00 00       	mov    $0x1000,%esi
  404524:	48 89 fb             	mov    %rdi,%rbx
  404527:	48 83 ec 08          	sub    $0x8,%rsp
  40452b:	e8 90 dc ff ff       	call   4021c0 <snprintf@plt>
  404530:	3d ff 0f 00 00       	cmp    $0xfff,%eax
  404535:	7f 39                	jg     404570 <dlerror@plt+0x20b0>
  404537:	be 3a 00 00 00       	mov    $0x3a,%esi
  40453c:	48 89 df             	mov    %rbx,%rdi
  40453f:	e8 5c dc ff ff       	call   4021a0 <strchr@plt>
  404544:	48 85 c0             	test   %rax,%rax
  404547:	74 27                	je     404570 <dlerror@plt+0x20b0>
  404549:	c6 00 00             	movb   $0x0,(%rax)
  40454c:	48 8d 70 01          	lea    0x1(%rax),%rsi
  404550:	48 89 ef             	mov    %rbp,%rdi
  404553:	e8 58 db ff ff       	call   4020b0 <strcpy@plt>
  404558:	80 3b 00             	cmpb   $0x0,(%rbx)
  40455b:	74 13                	je     404570 <dlerror@plt+0x20b0>
  40455d:	80 7d 00 00          	cmpb   $0x0,0x0(%rbp)
  404561:	74 0d                	je     404570 <dlerror@plt+0x20b0>
  404563:	31 c0                	xor    %eax,%eax
  404565:	48 83 c4 08          	add    $0x8,%rsp
  404569:	5b                   	pop    %rbx
  40456a:	5d                   	pop    %rbp
  40456b:	c3                   	ret    
  40456c:	0f 1f 40 00          	nopl   0x0(%rax)
  404570:	b8 ff ff ff ff       	mov    $0xffffffff,%eax
  404575:	eb ee                	jmp    404565 <dlerror@plt+0x20a5>
  404577:	66 0f 1f 84 00 00 00 	nopw   0x0(%rax,%rax,1)
  40457e:	00 00 
  404580:	41 57                	push   %r15
  404582:	49 89 f7             	mov    %rsi,%r15
  404585:	48 8d 77 20          	lea    0x20(%rdi),%rsi
  404589:	41 56                	push   %r14
  40458b:	4d 89 c6             	mov    %r8,%r14
  40458e:	41 55                	push   %r13
  404590:	49 89 cd             	mov    %rcx,%r13
  404593:	41 54                	push   %r12
  404595:	55                   	push   %rbp
  404596:	48 89 d5             	mov    %rdx,%rbp
  404599:	53                   	push   %rbx
  40459a:	48 89 fb             	mov    %rdi,%rbx
  40459d:	48 81 ec 08 40 00 00 	sub    $0x4008,%rsp
  4045a4:	48 8d bc 24 00 10 00 	lea    0x1000(%rsp),%rdi
  4045ab:	00 
  4045ac:	e8 7f 02 00 00       	call   404830 <dlerror@plt+0x2370>
  4045b1:	48 89 ee             	mov    %rbp,%rsi
  4045b4:	48 89 e7             	mov    %rsp,%rdi
  4045b7:	e8 74 02 00 00       	call   404830 <dlerror@plt+0x2370>
  4045bc:	48 8b 83 58 40 00 00 	mov    0x4058(%rbx),%rax
  4045c3:	48 8d 9c 24 00 20 00 	lea    0x2000(%rsp),%rbx
  4045ca:	00 
  4045cb:	48 85 c0             	test   %rax,%rax
  4045ce:	0f 84 9c 01 00 00    	je     404770 <dlerror@plt+0x22b0>
  4045d4:	48 83 ec 08          	sub    $0x8,%rsp
  4045d8:	41 b9 2f 00 00 00    	mov    $0x2f,%r9d
  4045de:	b9 2f 00 00 00       	mov    $0x2f,%ecx
  4045e3:	48 89 df             	mov    %rbx,%rdi
  4045e6:	41 55                	push   %r13
  4045e8:	be 20 9c 40 00       	mov    $0x409c20,%esi
  4045ed:	6a 2f                	push   $0x2f
  4045ef:	50                   	push   %rax
  4045f0:	31 c0                	xor    %eax,%eax
  4045f2:	4c 8d 44 24 20       	lea    0x20(%rsp),%r8
  4045f7:	48 8d 94 24 20 10 00 	lea    0x1020(%rsp),%rdx
  4045fe:	00 
  4045ff:	e8 3c fe ff ff       	call   404440 <dlerror@plt+0x1f80>
  404604:	48 83 c4 20          	add    $0x20,%rsp
  404608:	83 f8 01             	cmp    $0x1,%eax
  40460b:	0f 84 07 01 00 00    	je     404718 <dlerror@plt+0x2258>
  404611:	31 c0                	xor    %eax,%eax
  404613:	49 89 e8             	mov    %rbp,%r8
  404616:	b9 2f 00 00 00       	mov    $0x2f,%ecx
  40461b:	be 2f 9c 40 00       	mov    $0x409c2f,%esi
  404620:	48 8d 94 24 00 10 00 	lea    0x1000(%rsp),%rdx
  404627:	00 
  404628:	48 8d bc 24 00 30 00 	lea    0x3000(%rsp),%rdi
  40462f:	00 
  404630:	e8 0b fe ff ff       	call   404440 <dlerror@plt+0x1f80>
  404635:	83 f8 01             	cmp    $0x1,%eax
  404638:	74 56                	je     404690 <dlerror@plt+0x21d0>
  40463a:	31 c0                	xor    %eax,%eax
  40463c:	49 89 e8             	mov    %rbp,%r8
  40463f:	b9 2f 00 00 00       	mov    $0x2f,%ecx
  404644:	be 3a 9c 40 00       	mov    $0x409c3a,%esi
  404649:	48 8d 94 24 00 10 00 	lea    0x1000(%rsp),%rdx
  404650:	00 
  404651:	48 8d bc 24 00 30 00 	lea    0x3000(%rsp),%rdi
  404658:	00 
  404659:	e8 e2 fd ff ff       	call   404440 <dlerror@plt+0x1f80>
  40465e:	83 f8 01             	cmp    $0x1,%eax
  404661:	74 2d                	je     404690 <dlerror@plt+0x21d0>
  404663:	31 c0                	xor    %eax,%eax
  404665:	49 89 e8             	mov    %rbp,%r8
  404668:	b9 2f 00 00 00       	mov    $0x2f,%ecx
  40466d:	be 28 9c 40 00       	mov    $0x409c28,%esi
  404672:	48 8d 94 24 00 10 00 	lea    0x1000(%rsp),%rdx
  404679:	00 
  40467a:	48 8d bc 24 00 30 00 	lea    0x3000(%rsp),%rdi
  404681:	00 
  404682:	e8 b9 fd ff ff       	call   404440 <dlerror@plt+0x1f80>
  404687:	83 f8 01             	cmp    $0x1,%eax
  40468a:	0f 85 3f 01 00 00    	jne    4047cf <dlerror@plt+0x230f>
  404690:	49 8b 2f             	mov    (%r15),%rbp
  404693:	48 85 ed             	test   %rbp,%rbp
  404696:	0f 84 aa 00 00 00    	je     404746 <dlerror@plt+0x2286>
  40469c:	49 8d 5f 08          	lea    0x8(%r15),%rbx
  4046a0:	45 31 e4             	xor    %r12d,%r12d
  4046a3:	eb 1a                	jmp    4046bf <dlerror@plt+0x21ff>
  4046a5:	0f 1f 00             	nopl   (%rax)
  4046a8:	49 89 df             	mov    %rbx,%r15
  4046ab:	48 8b 2b             	mov    (%rbx),%rbp
  4046ae:	48 83 c3 08          	add    $0x8,%rbx
  4046b2:	41 83 c4 01          	add    $0x1,%r12d
  4046b6:	48 85 ed             	test   %rbp,%rbp
  4046b9:	0f 84 81 00 00 00    	je     404740 <dlerror@plt+0x2280>
  4046bf:	48 8d b4 24 00 30 00 	lea    0x3000(%rsp),%rsi
  4046c6:	00 
  4046c7:	48 89 ef             	mov    %rbp,%rdi
  4046ca:	e8 91 db ff ff       	call   402260 <strcmp@plt>
  4046cf:	85 c0                	test   %eax,%eax
  4046d1:	75 d5                	jne    4046a8 <dlerror@plt+0x21e8>
  4046d3:	4c 89 ee             	mov    %r13,%rsi
  4046d6:	48 89 ef             	mov    %rbp,%rdi
  4046d9:	e8 12 ea ff ff       	call   4030f0 <dlerror@plt+0xc30>
  4046de:	48 89 c6             	mov    %rax,%rsi
  4046e1:	48 85 c0             	test   %rax,%rax
  4046e4:	0f 84 0c 01 00 00    	je     4047f6 <dlerror@plt+0x2336>
  4046ea:	4c 89 f2             	mov    %r14,%rdx
  4046ed:	48 89 ef             	mov    %rbp,%rdi
  4046f0:	e8 bb e3 ff ff       	call   402ab0 <dlerror@plt+0x5f0>
  4046f5:	85 c0                	test   %eax,%eax
  4046f7:	0f 88 12 01 00 00    	js     40480f <dlerror@plt+0x234f>
  4046fd:	45 31 e4             	xor    %r12d,%r12d
  404700:	48 81 c4 08 40 00 00 	add    $0x4008,%rsp
  404707:	44 89 e0             	mov    %r12d,%eax
  40470a:	5b                   	pop    %rbx
  40470b:	5d                   	pop    %rbp
  40470c:	41 5c                	pop    %r12
  40470e:	41 5d                	pop    %r13
  404710:	41 5e                	pop    %r14
  404712:	41 5f                	pop    %r15
  404714:	c3                   	ret    
  404715:	0f 1f 00             	nopl   (%rax)
  404718:	4c 89 f6             	mov    %r14,%rsi
  40471b:	48 89 df             	mov    %rbx,%rdi
  40471e:	e8 3d 32 00 00       	call   407960 <dlerror@plt+0x54a0>
  404723:	41 89 c4             	mov    %eax,%r12d
  404726:	83 f8 ff             	cmp    $0xffffffff,%eax
  404729:	75 d2                	jne    4046fd <dlerror@plt+0x223d>
  40472b:	48 89 da             	mov    %rbx,%rdx
  40472e:	4c 89 ee             	mov    %r13,%rsi
  404731:	bf 68 9c 40 00       	mov    $0x409c68,%edi
  404736:	31 c0                	xor    %eax,%eax
  404738:	e8 63 eb ff ff       	call   4032a0 <dlerror@plt+0xde0>
  40473d:	eb c1                	jmp    404700 <dlerror@plt+0x2240>
  40473f:	90                   	nop
  404740:	41 83 fc 13          	cmp    $0x13,%r12d
  404744:	7f 5e                	jg     4047a4 <dlerror@plt+0x22e4>
  404746:	48 8d bc 24 00 30 00 	lea    0x3000(%rsp),%rdi
  40474d:	00 
  40474e:	e8 5d e6 ff ff       	call   402db0 <dlerror@plt+0x8f0>
  404753:	48 89 c5             	mov    %rax,%rbp
  404756:	48 85 c0             	test   %rax,%rax
  404759:	0f 84 81 00 00 00    	je     4047e0 <dlerror@plt+0x2320>
  40475f:	49 89 07             	mov    %rax,(%r15)
  404762:	e9 6c ff ff ff       	jmp    4046d3 <dlerror@plt+0x2213>
  404767:	66 0f 1f 84 00 00 00 	nopw   0x0(%rax,%rax,1)
  40476e:	00 00 
  404770:	48 83 ec 08          	sub    $0x8,%rsp
  404774:	b9 2f 00 00 00       	mov    $0x2f,%ecx
  404779:	be 24 9c 40 00       	mov    $0x409c24,%esi
  40477e:	31 c0                	xor    %eax,%eax
  404780:	41 55                	push   %r13
  404782:	41 b9 2f 00 00 00    	mov    $0x2f,%r9d
  404788:	48 89 df             	mov    %rbx,%rdi
  40478b:	4c 8d 44 24 10       	lea    0x10(%rsp),%r8
  404790:	48 8d 94 24 10 10 00 	lea    0x1010(%rsp),%rdx
  404797:	00 
  404798:	e8 a3 fc ff ff       	call   404440 <dlerror@plt+0x1f80>
  40479d:	5a                   	pop    %rdx
  40479e:	59                   	pop    %rcx
  40479f:	e9 64 fe ff ff       	jmp    404608 <dlerror@plt+0x2148>
  4047a4:	bf c0 9c 40 00       	mov    $0x409cc0,%edi
  4047a9:	31 c0                	xor    %eax,%eax
  4047ab:	e8 f0 ea ff ff       	call   4032a0 <dlerror@plt+0xde0>
  4047b0:	48 8d b4 24 00 30 00 	lea    0x3000(%rsp),%rsi
  4047b7:	00 
  4047b8:	bf e8 9c 40 00       	mov    $0x409ce8,%edi
  4047bd:	31 c0                	xor    %eax,%eax
  4047bf:	e8 dc ea ff ff       	call   4032a0 <dlerror@plt+0xde0>
  4047c4:	41 bc ff ff ff ff    	mov    $0xffffffff,%r12d
  4047ca:	e9 31 ff ff ff       	jmp    404700 <dlerror@plt+0x2240>
  4047cf:	48 89 ee             	mov    %rbp,%rsi
  4047d2:	bf 90 9c 40 00       	mov    $0x409c90,%edi
  4047d7:	31 c0                	xor    %eax,%eax
  4047d9:	e8 c2 ea ff ff       	call   4032a0 <dlerror@plt+0xde0>
  4047de:	eb e4                	jmp    4047c4 <dlerror@plt+0x2304>
  4047e0:	48 8d b4 24 00 30 00 	lea    0x3000(%rsp),%rsi
  4047e7:	00 
  4047e8:	bf 45 9c 40 00       	mov    $0x409c45,%edi
  4047ed:	31 c0                	xor    %eax,%eax
  4047ef:	e8 ac ea ff ff       	call   4032a0 <dlerror@plt+0xde0>
  4047f4:	eb ba                	jmp    4047b0 <dlerror@plt+0x22f0>
  4047f6:	48 8d 94 24 00 30 00 	lea    0x3000(%rsp),%rdx
  4047fd:	00 
  4047fe:	4c 89 ee             	mov    %r13,%rsi
  404801:	bf 20 9d 40 00       	mov    $0x409d20,%edi
  404806:	31 c0                	xor    %eax,%eax
  404808:	e8 93 ea ff ff       	call   4032a0 <dlerror@plt+0xde0>
  40480d:	eb b5                	jmp    4047c4 <dlerror@plt+0x2304>
  40480f:	48 8d 94 24 00 30 00 	lea    0x3000(%rsp),%rdx
  404816:	00 
  404817:	4c 89 ee             	mov    %r13,%rsi
  40481a:	bf 60 9d 40 00       	mov    $0x409d60,%edi
  40481f:	31 c0                	xor    %eax,%eax
  404821:	e8 7a ea ff ff       	call   4032a0 <dlerror@plt+0xde0>
  404826:	eb 9c                	jmp    4047c4 <dlerror@plt+0x2304>
  404828:	0f 1f 84 00 00 00 00 	nopl   0x0(%rax,%rax,1)
  40482f:	00 
  404830:	55                   	push   %rbp
  404831:	48 89 f1             	mov    %rsi,%rcx
  404834:	48 89 fd             	mov    %rdi,%rbp
  404837:	ba 66 bb 40 00       	mov    $0x40bb66,%edx
  40483c:	be 00 10 00 00       	mov    $0x1000,%esi
  404841:	31 c0                	xor    %eax,%eax
  404843:	48 81 ec 00 10 00 00 	sub    $0x1000,%rsp
  40484a:	48 89 e7             	mov    %rsp,%rdi
  40484d:	e8 6e d9 ff ff       	call   4021c0 <snprintf@plt>
  404852:	41 89 c0             	mov    %eax,%r8d
  404855:	31 c0                	xor    %eax,%eax
  404857:	41 81 f8 ff 0f 00 00 	cmp    $0xfff,%r8d
  40485e:	7f 27                	jg     404887 <dlerror@plt+0x23c7>
  404860:	48 89 e7             	mov    %rsp,%rdi
  404863:	e8 68 d9 ff ff       	call   4021d0 <dirname@plt>
  404868:	ba 66 bb 40 00       	mov    $0x40bb66,%edx
  40486d:	be 00 10 00 00       	mov    $0x1000,%esi
  404872:	48 89 ef             	mov    %rbp,%rdi
  404875:	48 89 c1             	mov    %rax,%rcx
  404878:	31 c0                	xor    %eax,%eax
  40487a:	e8 41 d9 ff ff       	call   4021c0 <snprintf@plt>
  40487f:	3d ff 0f 00 00       	cmp    $0xfff,%eax
  404884:	0f 9e c0             	setle  %al
  404887:	48 81 c4 00 10 00 00 	add    $0x1000,%rsp
  40488e:	5d                   	pop    %rbp
  40488f:	c3                   	ret    
  404890:	55                   	push   %rbp
  404891:	48 89 fd             	mov    %rdi,%rbp
  404894:	48 89 f7             	mov    %rsi,%rdi
  404897:	e8 64 da ff ff       	call   402300 <__xpg_basename@plt>
  40489c:	48 89 ef             	mov    %rbp,%rdi
  40489f:	48 89 c6             	mov    %rax,%rsi
  4048a2:	e8 09 d8 ff ff       	call   4020b0 <strcpy@plt>
  4048a7:	b8 01 00 00 00       	mov    $0x1,%eax
  4048ac:	5d                   	pop    %rbp
  4048ad:	c3                   	ret    
  4048ae:	66 90                	xchg   %ax,%ax
  4048b0:	41 54                	push   %r12
  4048b2:	48 89 f1             	mov    %rsi,%rcx
  4048b5:	31 c0                	xor    %eax,%eax
  4048b7:	be 00 10 00 00       	mov    $0x1000,%esi
  4048bc:	55                   	push   %rbp
  4048bd:	48 89 d5             	mov    %rdx,%rbp
  4048c0:	ba 66 bb 40 00       	mov    $0x40bb66,%edx
  4048c5:	53                   	push   %rbx
  4048c6:	48 89 fb             	mov    %rdi,%rbx
  4048c9:	e8 f2 d8 ff ff       	call   4021c0 <snprintf@plt>
  4048ce:	48 98                	cltq   
  4048d0:	48 3d fe 0f 00 00    	cmp    $0xffe,%rax
  4048d6:	77 68                	ja     404940 <dlerror@plt+0x2480>
  4048d8:	80 7c 03 ff 2f       	cmpb   $0x2f,-0x1(%rbx,%rax,1)
  4048dd:	74 10                	je     4048ef <dlerror@plt+0x242f>
  4048df:	48 8d 50 01          	lea    0x1(%rax),%rdx
  4048e3:	c6 04 03 2f          	movb   $0x2f,(%rbx,%rax,1)
  4048e7:	48 83 c0 02          	add    $0x2,%rax
  4048eb:	c6 04 13 00          	movb   $0x0,(%rbx,%rdx,1)
  4048ef:	41 bc 00 10 00 00    	mov    $0x1000,%r12d
  4048f5:	48 89 ef             	mov    %rbp,%rdi
  4048f8:	49 29 c4             	sub    %rax,%r12
  4048fb:	e8 80 d8 ff ff       	call   402180 <strlen@plt>
  404900:	49 39 c4             	cmp    %rax,%r12
  404903:	76 3b                	jbe    404940 <dlerror@plt+0x2480>
  404905:	80 7c 05 ff 2f       	cmpb   $0x2f,-0x1(%rbp,%rax,1)
  40490a:	4c 89 e2             	mov    %r12,%rdx
  40490d:	48 89 ee             	mov    %rbp,%rsi
  404910:	48 89 df             	mov    %rbx,%rdi
  404913:	74 0b                	je     404920 <dlerror@plt+0x2460>
  404915:	e8 d6 d8 ff ff       	call   4021f0 <strncat@plt>
  40491a:	5b                   	pop    %rbx
  40491b:	5d                   	pop    %rbp
  40491c:	41 5c                	pop    %r12
  40491e:	c3                   	ret    
  40491f:	90                   	nop
  404920:	e8 cb d8 ff ff       	call   4021f0 <strncat@plt>
  404925:	48 89 df             	mov    %rbx,%rdi
  404928:	e8 53 d8 ff ff       	call   402180 <strlen@plt>
  40492d:	c6 44 03 ff 00       	movb   $0x0,-0x1(%rbx,%rax,1)
  404932:	48 89 d8             	mov    %rbx,%rax
  404935:	5b                   	pop    %rbx
  404936:	5d                   	pop    %rbp
  404937:	41 5c                	pop    %r12
  404939:	c3                   	ret    
  40493a:	66 0f 1f 44 00 00    	nopw   0x0(%rax,%rax,1)
  404940:	5b                   	pop    %rbx
  404941:	31 c0                	xor    %eax,%eax
  404943:	5d                   	pop    %rbp
  404944:	41 5c                	pop    %r12
  404946:	c3                   	ret    
  404947:	66 0f 1f 84 00 00 00 	nopw   0x0(%rax,%rax,1)
  40494e:	00 00 
  404950:	48 81 ec 98 00 00 00 	sub    $0x98,%rsp
  404957:	48 89 fe             	mov    %rdi,%rsi
  40495a:	bf 01 00 00 00       	mov    $0x1,%edi
  40495f:	48 89 e2             	mov    %rsp,%rdx
  404962:	e8 b9 d9 ff ff       	call   402320 <__xstat@plt>
  404967:	85 c0                	test   %eax,%eax
  404969:	0f 94 c0             	sete   %al
  40496c:	48 81 c4 98 00 00 00 	add    $0x98,%rsp
  404973:	0f b6 c0             	movzbl %al,%eax
  404976:	c3                   	ret    
  404977:	66 0f 1f 84 00 00 00 	nopw   0x0(%rax,%rax,1)
  40497e:	00 00 
  404980:	48 81 ec 98 00 00 00 	sub    $0x98,%rsp
  404987:	48 89 fe             	mov    %rdi,%rsi
  40498a:	bf 01 00 00 00       	mov    $0x1,%edi
  40498f:	48 89 e2             	mov    %rsp,%rdx
  404992:	e8 f9 d7 ff ff       	call   402190 <__lxstat@plt>
  404997:	41 89 c0             	mov    %eax,%r8d
  40499a:	31 c0                	xor    %eax,%eax
  40499c:	45 85 c0             	test   %r8d,%r8d
  40499f:	78 11                	js     4049b2 <dlerror@plt+0x24f2>
  4049a1:	8b 44 24 18          	mov    0x18(%rsp),%eax
  4049a5:	25 00 f0 00 00       	and    $0xf000,%eax
  4049aa:	3d 00 a0 00 00       	cmp    $0xa000,%eax
  4049af:	0f 94 c0             	sete   %al
  4049b2:	48 81 c4 98 00 00 00 	add    $0x98,%rsp
  4049b9:	c3                   	ret    
  4049ba:	66 0f 1f 44 00 00    	nopw   0x0(%rax,%rax,1)
  4049c0:	e9 eb d7 ff ff       	jmp    4021b0 <symlink@plt>
  4049c5:	66 2e 0f 1f 84 00 00 	cs nopw 0x0(%rax,%rax,1)
  4049cc:	00 00 00 
  4049cf:	90                   	nop
  4049d0:	41 54                	push   %r12
  4049d2:	49 89 f4             	mov    %rsi,%r12
  4049d5:	55                   	push   %rbp
  4049d6:	48 89 fd             	mov    %rdi,%rbp
  4049d9:	48 89 f7             	mov    %rsi,%rdi
  4049dc:	53                   	push   %rbx
  4049dd:	e8 9e d7 ff ff       	call   402180 <strlen@plt>
  4049e2:	4c 89 e6             	mov    %r12,%rsi
  4049e5:	48 89 ef             	mov    %rbp,%rdi
  4049e8:	48 89 c2             	mov    %rax,%rdx
  4049eb:	48 89 c3             	mov    %rax,%rbx
  4049ee:	e8 ad d6 ff ff       	call   4020a0 <strncmp@plt>
  4049f3:	85 c0                	test   %eax,%eax
  4049f5:	75 31                	jne    404a28 <dlerror@plt+0x2568>
  4049f7:	48 8d 44 1d 00       	lea    0x0(%rbp,%rbx,1),%rax
  4049fc:	0f b6 10             	movzbl (%rax),%edx
  4049ff:	84 d2                	test   %dl,%dl
  404a01:	74 0c                	je     404a0f <dlerror@plt+0x254f>
  404a03:	80 fa 3d             	cmp    $0x3d,%dl
  404a06:	74 10                	je     404a18 <dlerror@plt+0x2558>
  404a08:	31 c0                	xor    %eax,%eax
  404a0a:	80 fa 20             	cmp    $0x20,%dl
  404a0d:	74 09                	je     404a18 <dlerror@plt+0x2558>
  404a0f:	5b                   	pop    %rbx
  404a10:	5d                   	pop    %rbp
  404a11:	41 5c                	pop    %r12
  404a13:	c3                   	ret    
  404a14:	0f 1f 40 00          	nopl   0x0(%rax)
  404a18:	48 8d 44 1d 01       	lea    0x1(%rbp,%rbx,1),%rax
  404a1d:	5b                   	pop    %rbx
  404a1e:	5d                   	pop    %rbp
  404a1f:	41 5c                	pop    %r12
  404a21:	c3                   	ret    
  404a22:	66 0f 1f 44 00 00    	nopw   0x0(%rax,%rax,1)
  404a28:	5b                   	pop    %rbx
  404a29:	31 c0                	xor    %eax,%eax
  404a2b:	5d                   	pop    %rbp
  404a2c:	41 5c                	pop    %r12
  404a2e:	c3                   	ret    
  404a2f:	90                   	nop
  404a30:	53                   	push   %rbx
  404a31:	ba 00 10 00 00       	mov    $0x1000,%edx
  404a36:	48 89 f3             	mov    %rsi,%rbx
  404a39:	48 89 fe             	mov    %rdi,%rsi
  404a3c:	48 81 ec 10 40 00 00 	sub    $0x4010,%rsp
  404a43:	48 89 e7             	mov    %rsp,%rdi
  404a46:	e8 c5 d6 ff ff       	call   402110 <mbstowcs@plt>
  404a4b:	48 89 e7             	mov    %rsp,%rdi
  404a4e:	e8 2d d9 ff ff       	call   402380 <wcsdup@plt>
  404a53:	48 85 c0             	test   %rax,%rax
  404a56:	48 89 03             	mov    %rax,(%rbx)
  404a59:	0f 94 c0             	sete   %al
  404a5c:	48 81 c4 10 40 00 00 	add    $0x4010,%rsp
  404a63:	0f b6 c0             	movzbl %al,%eax
  404a66:	5b                   	pop    %rbx
  404a67:	f7 d8                	neg    %eax
  404a69:	c3                   	ret    
  404a6a:	66 0f 1f 44 00 00    	nopw   0x0(%rax,%rax,1)
  404a70:	48 85 ff             	test   %rdi,%rdi
  404a73:	74 7b                	je     404af0 <dlerror@plt+0x2630>
  404a75:	55                   	push   %rbp
  404a76:	48 89 fd             	mov    %rdi,%rbp
  404a79:	53                   	push   %rbx
  404a7a:	48 83 ec 08          	sub    $0x8,%rsp
  404a7e:	8b 57 20             	mov    0x20(%rdi),%edx
  404a81:	85 d2                	test   %edx,%edx
  404a83:	7e 21                	jle    404aa6 <dlerror@plt+0x25e6>
  404a85:	31 db                	xor    %ebx,%ebx
  404a87:	66 0f 1f 84 00 00 00 	nopw   0x0(%rax,%rax,1)
  404a8e:	00 00 
  404a90:	48 8b 45 28          	mov    0x28(%rbp),%rax
  404a94:	48 8b 3c d8          	mov    (%rax,%rbx,8),%rdi
  404a98:	48 83 c3 01          	add    $0x1,%rbx
  404a9c:	e8 bf d5 ff ff       	call   402060 <free@plt>
  404aa1:	39 5d 20             	cmp    %ebx,0x20(%rbp)
  404aa4:	7f ea                	jg     404a90 <dlerror@plt+0x25d0>
  404aa6:	48 8b 7d 28          	mov    0x28(%rbp),%rdi
  404aaa:	e8 b1 d5 ff ff       	call   402060 <free@plt>
  404aaf:	8b 45 30             	mov    0x30(%rbp),%eax
  404ab2:	85 c0                	test   %eax,%eax
  404ab4:	7e 20                	jle    404ad6 <dlerror@plt+0x2616>
  404ab6:	31 db                	xor    %ebx,%ebx
  404ab8:	0f 1f 84 00 00 00 00 	nopl   0x0(%rax,%rax,1)
  404abf:	00 
  404ac0:	48 8b 45 38          	mov    0x38(%rbp),%rax
  404ac4:	48 8b 3c d8          	mov    (%rax,%rbx,8),%rdi
  404ac8:	48 83 c3 01          	add    $0x1,%rbx
  404acc:	e8 8f d5 ff ff       	call   402060 <free@plt>
  404ad1:	39 5d 30             	cmp    %ebx,0x30(%rbp)
  404ad4:	7f ea                	jg     404ac0 <dlerror@plt+0x2600>
  404ad6:	48 8b 7d 38          	mov    0x38(%rbp),%rdi
  404ada:	e8 81 d5 ff ff       	call   402060 <free@plt>
  404adf:	48 83 c4 08          	add    $0x8,%rsp
  404ae3:	48 89 ef             	mov    %rbp,%rdi
  404ae6:	5b                   	pop    %rbx
  404ae7:	5d                   	pop    %rbp
  404ae8:	e9 73 d5 ff ff       	jmp    402060 <free@plt>
  404aed:	0f 1f 00             	nopl   (%rax)
  404af0:	c3                   	ret    
  404af1:	66 66 2e 0f 1f 84 00 	data16 cs nopw 0x0(%rax,%rax,1)
  404af8:	00 00 00 00 
  404afc:	0f 1f 40 00          	nopl   0x0(%rax)
  404b00:	41 56                	push   %r14
  404b02:	be 40 00 00 00       	mov    $0x40,%esi
  404b07:	41 55                	push   %r13
  404b09:	41 54                	push   %r12
  404b0b:	55                   	push   %rbp
  404b0c:	53                   	push   %rbx
  404b0d:	48 8b 9f 20 20 00 00 	mov    0x2020(%rdi),%rbx
  404b14:	bf 01 00 00 00       	mov    $0x1,%edi
  404b19:	e8 32 d7 ff ff       	call   402250 <calloc@plt>
  404b1e:	49 89 c4             	mov    %rax,%r12
  404b21:	48 85 c0             	test   %rax,%rax
  404b24:	0f 84 3b 01 00 00    	je     404c65 <dlerror@plt+0x27a5>
  404b2a:	c7 40 18 ff ff ff ff 	movl   $0xffffffff,0x18(%rax)
  404b31:	48 8b ab 08 10 00 00 	mov    0x1008(%rbx),%rbp
  404b38:	48 3b ab 10 10 00 00 	cmp    0x1010(%rbx),%rbp
  404b3f:	0f 83 2b 03 00 00    	jae    404e70 <dlerror@plt+0x29b0>
  404b45:	45 31 f6             	xor    %r14d,%r14d
  404b48:	45 31 ed             	xor    %r13d,%r13d
  404b4b:	eb 2e                	jmp    404b7b <dlerror@plt+0x26bb>
  404b4d:	0f 1f 00             	nopl   (%rax)
  404b50:	80 7d 13 00          	cmpb   $0x0,0x13(%rbp)
  404b54:	0f 85 86 00 00 00    	jne    404be0 <dlerror@plt+0x2720>
  404b5a:	41 83 04 24 01       	addl   $0x1,(%r12)
  404b5f:	90                   	nop
  404b60:	48 89 ee             	mov    %rbp,%rsi
  404b63:	48 89 df             	mov    %rbx,%rdi
  404b66:	e8 b5 dd ff ff       	call   402920 <dlerror@plt+0x460>
  404b6b:	48 89 c5             	mov    %rax,%rbp
  404b6e:	48 39 83 10 10 00 00 	cmp    %rax,0x1010(%rbx)
  404b75:	0f 86 fd 00 00 00    	jbe    404c78 <dlerror@plt+0x27b8>
  404b7b:	80 7d 11 6f          	cmpb   $0x6f,0x11(%rbp)
  404b7f:	75 df                	jne    404b60 <dlerror@plt+0x26a0>
  404b81:	4c 8d 45 12          	lea    0x12(%rbp),%r8
  404b85:	bf 9d 9d 40 00       	mov    $0x409d9d,%edi
  404b8a:	b9 04 00 00 00       	mov    $0x4,%ecx
  404b8f:	4c 89 c6             	mov    %r8,%rsi
  404b92:	f3 a6                	repz cmpsb %es:(%rdi),%ds:(%rsi)
  404b94:	0f 97 c0             	seta   %al
  404b97:	1c 00                	sbb    $0x0,%al
  404b99:	84 c0                	test   %al,%al
  404b9b:	74 c3                	je     404b60 <dlerror@plt+0x26a0>
  404b9d:	0f b6 45 12          	movzbl 0x12(%rbp),%eax
  404ba1:	83 f8 76             	cmp    $0x76,%eax
  404ba4:	74 aa                	je     404b50 <dlerror@plt+0x2690>
  404ba6:	bf a2 9d 40 00       	mov    $0x409da2,%edi
  404bab:	b9 08 00 00 00       	mov    $0x8,%ecx
  404bb0:	4c 89 c6             	mov    %r8,%rsi
  404bb3:	f3 a6                	repz cmpsb %es:(%rdi),%ds:(%rsi)
  404bb5:	0f 97 c2             	seta   %dl
  404bb8:	80 da 00             	sbb    $0x0,%dl
  404bbb:	84 d2                	test   %dl,%dl
  404bbd:	74 9b                	je     404b5a <dlerror@plt+0x269a>
  404bbf:	83 f8 75             	cmp    $0x75,%eax
  404bc2:	0f 85 18 02 00 00    	jne    404de0 <dlerror@plt+0x2920>
  404bc8:	80 7d 13 00          	cmpb   $0x0,0x13(%rbp)
  404bcc:	75 2e                	jne    404bfc <dlerror@plt+0x273c>
  404bce:	41 c7 44 24 04 01 00 	movl   $0x1,0x4(%r12)
  404bd5:	00 00 
  404bd7:	eb 87                	jmp    404b60 <dlerror@plt+0x26a0>
  404bd9:	0f 1f 80 00 00 00 00 	nopl   0x0(%rax)
  404be0:	bf a2 9d 40 00       	mov    $0x409da2,%edi
  404be5:	b9 08 00 00 00       	mov    $0x8,%ecx
  404bea:	4c 89 c6             	mov    %r8,%rsi
  404bed:	f3 a6                	repz cmpsb %es:(%rdi),%ds:(%rsi)
  404bef:	0f 97 c0             	seta   %al
  404bf2:	1c 00                	sbb    $0x0,%al
  404bf4:	84 c0                	test   %al,%al
  404bf6:	0f 84 5e ff ff ff    	je     404b5a <dlerror@plt+0x269a>
  404bfc:	bf aa 9d 40 00       	mov    $0x409daa,%edi
  404c01:	b9 0b 00 00 00       	mov    $0xb,%ecx
  404c06:	4c 89 c6             	mov    %r8,%rsi
  404c09:	f3 a6                	repz cmpsb %es:(%rdi),%ds:(%rsi)
  404c0b:	0f 97 c0             	seta   %al
  404c0e:	1c 00                	sbb    $0x0,%al
  404c10:	84 c0                	test   %al,%al
  404c12:	74 ba                	je     404bce <dlerror@plt+0x270e>
  404c14:	bf b5 9d 40 00       	mov    $0x409db5,%edi
  404c19:	b9 09 00 00 00       	mov    $0x9,%ecx
  404c1e:	4c 89 c6             	mov    %r8,%rsi
  404c21:	f3 a6                	repz cmpsb %es:(%rdi),%ds:(%rsi)
  404c23:	0f 97 c0             	seta   %al
  404c26:	1c 00                	sbb    $0x0,%al
  404c28:	84 c0                	test   %al,%al
  404c2a:	0f 84 e0 01 00 00    	je     404e10 <dlerror@plt+0x2950>
  404c30:	41 0f b6 00          	movzbl (%r8),%eax
  404c34:	83 f8 57             	cmp    $0x57,%eax
  404c37:	0f 84 de 01 00 00    	je     404e1b <dlerror@plt+0x295b>
  404c3d:	83 f8 58             	cmp    $0x58,%eax
  404c40:	0f 85 e9 01 00 00    	jne    404e2f <dlerror@plt+0x296f>
  404c46:	41 80 78 01 20       	cmpb   $0x20,0x1(%r8)
  404c4b:	0f 85 de 01 00 00    	jne    404e2f <dlerror@plt+0x296f>
  404c51:	41 83 c6 01          	add    $0x1,%r14d
  404c55:	e9 06 ff ff ff       	jmp    404b60 <dlerror@plt+0x26a0>
  404c5a:	4c 89 e7             	mov    %r12,%rdi
  404c5d:	45 31 e4             	xor    %r12d,%r12d
  404c60:	e8 0b fe ff ff       	call   404a70 <dlerror@plt+0x25b0>
  404c65:	5b                   	pop    %rbx
  404c66:	4c 89 e0             	mov    %r12,%rax
  404c69:	5d                   	pop    %rbp
  404c6a:	41 5c                	pop    %r12
  404c6c:	41 5d                	pop    %r13
  404c6e:	41 5e                	pop    %r14
  404c70:	c3                   	ret    
  404c71:	0f 1f 80 00 00 00 00 	nopl   0x0(%rax)
  404c78:	49 63 fd             	movslq %r13d,%rdi
  404c7b:	4d 63 f6             	movslq %r14d,%r14
  404c7e:	be 08 00 00 00       	mov    $0x8,%esi
  404c83:	e8 c8 d5 ff ff       	call   402250 <calloc@plt>
  404c88:	be 08 00 00 00       	mov    $0x8,%esi
  404c8d:	4c 89 f7             	mov    %r14,%rdi
  404c90:	49 89 44 24 28       	mov    %rax,0x28(%r12)
  404c95:	48 89 c5             	mov    %rax,%rbp
  404c98:	e8 b3 d5 ff ff       	call   402250 <calloc@plt>
  404c9d:	49 89 44 24 38       	mov    %rax,0x38(%r12)
  404ca2:	48 85 ed             	test   %rbp,%rbp
  404ca5:	74 b3                	je     404c5a <dlerror@plt+0x279a>
  404ca7:	48 85 c0             	test   %rax,%rax
  404caa:	74 ae                	je     404c5a <dlerror@plt+0x279a>
  404cac:	48 8b ab 08 10 00 00 	mov    0x1008(%rbx),%rbp
  404cb3:	48 39 ab 10 10 00 00 	cmp    %rbp,0x1010(%rbx)
  404cba:	77 4f                	ja     404d0b <dlerror@plt+0x284b>
  404cbc:	eb a7                	jmp    404c65 <dlerror@plt+0x27a5>
  404cbe:	66 90                	xchg   %ax,%ax
  404cc0:	80 7a 01 20          	cmpb   $0x20,0x1(%rdx)
  404cc4:	75 58                	jne    404d1e <dlerror@plt+0x285e>
  404cc6:	49 63 54 24 20       	movslq 0x20(%r12),%rdx
  404ccb:	49 8b 44 24 28       	mov    0x28(%r12),%rax
  404cd0:	48 8d 7d 14          	lea    0x14(%rbp),%rdi
  404cd4:	48 8d 34 d0          	lea    (%rax,%rdx,8),%rsi
  404cd8:	e8 53 fd ff ff       	call   404a30 <dlerror@plt+0x2570>
  404cdd:	85 c0                	test   %eax,%eax
  404cdf:	0f 88 75 ff ff ff    	js     404c5a <dlerror@plt+0x279a>
  404ce5:	41 83 44 24 20 01    	addl   $0x1,0x20(%r12)
  404ceb:	0f 1f 44 00 00       	nopl   0x0(%rax,%rax,1)
  404cf0:	48 89 ee             	mov    %rbp,%rsi
  404cf3:	48 89 df             	mov    %rbx,%rdi
  404cf6:	e8 25 dc ff ff       	call   402920 <dlerror@plt+0x460>
  404cfb:	48 89 c5             	mov    %rax,%rbp
  404cfe:	48 39 83 10 10 00 00 	cmp    %rax,0x1010(%rbx)
  404d05:	0f 86 5a ff ff ff    	jbe    404c65 <dlerror@plt+0x27a5>
  404d0b:	80 7d 11 6f          	cmpb   $0x6f,0x11(%rbp)
  404d0f:	75 df                	jne    404cf0 <dlerror@plt+0x2830>
  404d11:	0f b6 45 12          	movzbl 0x12(%rbp),%eax
  404d15:	48 8d 55 12          	lea    0x12(%rbp),%rdx
  404d19:	83 f8 57             	cmp    $0x57,%eax
  404d1c:	74 a2                	je     404cc0 <dlerror@plt+0x2800>
  404d1e:	83 f8 58             	cmp    $0x58,%eax
  404d21:	75 cd                	jne    404cf0 <dlerror@plt+0x2830>
  404d23:	80 7a 01 20          	cmpb   $0x20,0x1(%rdx)
  404d27:	75 c7                	jne    404cf0 <dlerror@plt+0x2830>
  404d29:	49 63 54 24 30       	movslq 0x30(%r12),%rdx
  404d2e:	49 8b 44 24 38       	mov    0x38(%r12),%rax
  404d33:	4c 8d 6d 14          	lea    0x14(%rbp),%r13
  404d37:	4c 89 ef             	mov    %r13,%rdi
  404d3a:	48 8d 34 d0          	lea    (%rax,%rdx,8),%rsi
  404d3e:	e8 ed fc ff ff       	call   404a30 <dlerror@plt+0x2570>
  404d43:	85 c0                	test   %eax,%eax
  404d45:	0f 88 0f ff ff ff    	js     404c5a <dlerror@plt+0x279a>
  404d4b:	41 83 44 24 30 01    	addl   $0x1,0x30(%r12)
  404d51:	be c8 9d 40 00       	mov    $0x409dc8,%esi
  404d56:	4c 89 ef             	mov    %r13,%rdi
  404d59:	e8 72 fc ff ff       	call   4049d0 <dlerror@plt+0x2510>
  404d5e:	48 85 c0             	test   %rax,%rax
  404d61:	74 10                	je     404d73 <dlerror@plt+0x28b3>
  404d63:	0f b6 10             	movzbl (%rax),%edx
  404d66:	84 d2                	test   %dl,%dl
  404d68:	75 36                	jne    404da0 <dlerror@plt+0x28e0>
  404d6a:	41 c7 44 24 18 01 00 	movl   $0x1,0x18(%r12)
  404d71:	00 00 
  404d73:	be cd 9d 40 00       	mov    $0x409dcd,%esi
  404d78:	4c 89 ef             	mov    %r13,%rdi
  404d7b:	e8 50 fc ff ff       	call   4049d0 <dlerror@plt+0x2510>
  404d80:	48 85 c0             	test   %rax,%rax
  404d83:	0f 84 67 ff ff ff    	je     404cf0 <dlerror@plt+0x2830>
  404d89:	0f b6 10             	movzbl (%rax),%edx
  404d8c:	84 d2                	test   %dl,%dl
  404d8e:	75 30                	jne    404dc0 <dlerror@plt+0x2900>
  404d90:	41 c7 44 24 1c 01 00 	movl   $0x1,0x1c(%r12)
  404d97:	00 00 
  404d99:	e9 52 ff ff ff       	jmp    404cf0 <dlerror@plt+0x2830>
  404d9e:	66 90                	xchg   %ax,%ax
  404da0:	83 ea 30             	sub    $0x30,%edx
  404da3:	75 04                	jne    404da9 <dlerror@plt+0x28e9>
  404da5:	0f b6 50 01          	movzbl 0x1(%rax),%edx
  404da9:	31 c0                	xor    %eax,%eax
  404dab:	85 d2                	test   %edx,%edx
  404dad:	0f 95 c0             	setne  %al
  404db0:	41 89 44 24 18       	mov    %eax,0x18(%r12)
  404db5:	eb bc                	jmp    404d73 <dlerror@plt+0x28b3>
  404db7:	66 0f 1f 84 00 00 00 	nopw   0x0(%rax,%rax,1)
  404dbe:	00 00 
  404dc0:	83 ea 30             	sub    $0x30,%edx
  404dc3:	75 04                	jne    404dc9 <dlerror@plt+0x2909>
  404dc5:	0f b6 50 01          	movzbl 0x1(%rax),%edx
  404dc9:	31 c0                	xor    %eax,%eax
  404dcb:	85 d2                	test   %edx,%edx
  404dcd:	0f 95 c0             	setne  %al
  404dd0:	41 89 44 24 1c       	mov    %eax,0x1c(%r12)
  404dd5:	e9 16 ff ff ff       	jmp    404cf0 <dlerror@plt+0x2830>
  404dda:	66 0f 1f 44 00 00    	nopw   0x0(%rax,%rax,1)
  404de0:	bf aa 9d 40 00       	mov    $0x409daa,%edi
  404de5:	b9 0b 00 00 00       	mov    $0xb,%ecx
  404dea:	4c 89 c6             	mov    %r8,%rsi
  404ded:	f3 a6                	repz cmpsb %es:(%rdi),%ds:(%rsi)
  404def:	0f 97 c2             	seta   %dl
  404df2:	80 da 00             	sbb    $0x0,%dl
  404df5:	84 d2                	test   %dl,%dl
  404df7:	0f 84 d1 fd ff ff    	je     404bce <dlerror@plt+0x270e>
  404dfd:	83 f8 4f             	cmp    $0x4f,%eax
  404e00:	0f 85 0e fe ff ff    	jne    404c14 <dlerror@plt+0x2754>
  404e06:	80 7d 13 00          	cmpb   $0x0,0x13(%rbp)
  404e0a:	0f 85 04 fe ff ff    	jne    404c14 <dlerror@plt+0x2754>
  404e10:	41 83 44 24 08 01    	addl   $0x1,0x8(%r12)
  404e16:	e9 45 fd ff ff       	jmp    404b60 <dlerror@plt+0x26a0>
  404e1b:	41 80 78 01 20       	cmpb   $0x20,0x1(%r8)
  404e20:	0f 85 17 fe ff ff    	jne    404c3d <dlerror@plt+0x277d>
  404e26:	41 83 c5 01          	add    $0x1,%r13d
  404e2a:	e9 31 fd ff ff       	jmp    404b60 <dlerror@plt+0x26a0>
  404e2f:	be be 9d 40 00       	mov    $0x409dbe,%esi
  404e34:	4c 89 c7             	mov    %r8,%rdi
  404e37:	e8 94 fb ff ff       	call   4049d0 <dlerror@plt+0x2510>
  404e3c:	48 85 c0             	test   %rax,%rax
  404e3f:	0f 84 1b fd ff ff    	je     404b60 <dlerror@plt+0x26a0>
  404e45:	80 38 00             	cmpb   $0x0,(%rax)
  404e48:	0f 84 12 fd ff ff    	je     404b60 <dlerror@plt+0x26a0>
  404e4e:	41 c7 44 24 0c 01 00 	movl   $0x1,0xc(%r12)
  404e55:	00 00 
  404e57:	ba 0a 00 00 00       	mov    $0xa,%edx
  404e5c:	31 f6                	xor    %esi,%esi
  404e5e:	48 89 c7             	mov    %rax,%rdi
  404e61:	e8 ea d5 ff ff       	call   402450 <strtoul@plt>
  404e66:	49 89 44 24 10       	mov    %rax,0x10(%r12)
  404e6b:	e9 f0 fc ff ff       	jmp    404b60 <dlerror@plt+0x26a0>
  404e70:	45 31 f6             	xor    %r14d,%r14d
  404e73:	31 ff                	xor    %edi,%edi
  404e75:	e9 04 fe ff ff       	jmp    404c7e <dlerror@plt+0x27be>
  404e7a:	66 0f 1f 44 00 00    	nopw   0x0(%rax,%rax,1)
  404e80:	48 8b 87 20 20 00 00 	mov    0x2020(%rdi),%rax
  404e87:	0f b6 97 61 40 00 00 	movzbl 0x4061(%rdi),%edx
  404e8e:	8b 80 28 10 00 00    	mov    0x1028(%rax),%eax
  404e94:	01 c0                	add    %eax,%eax
  404e96:	09 d0                	or     %edx,%eax
  404e98:	2d 68 02 00 00       	sub    $0x268,%eax
  404e9d:	83 f8 0b             	cmp    $0xb,%eax
  404ea0:	77 2e                	ja     404ed0 <dlerror@plt+0x2a10>
  404ea2:	ff 24 c5 f0 9d 40 00 	jmp    *0x409df0(,%rax,8)
  404ea9:	0f 1f 80 00 00 00 00 	nopl   0x0(%rax)
  404eb0:	be 88 01 00 00       	mov    $0x188,%esi
  404eb5:	bf 01 00 00 00       	mov    $0x1,%edi
  404eba:	e9 91 d3 ff ff       	jmp    402250 <calloc@plt>
  404ebf:	90                   	nop
  404ec0:	be c8 01 00 00       	mov    $0x1c8,%esi
  404ec5:	bf 01 00 00 00       	mov    $0x1,%edi
  404eca:	e9 81 d3 ff ff       	jmp    402250 <calloc@plt>
  404ecf:	90                   	nop
  404ed0:	31 c0                	xor    %eax,%eax
  404ed2:	c3                   	ret    
  404ed3:	0f 1f 44 00 00       	nopl   0x0(%rax,%rax,1)
  404ed8:	be a8 01 00 00       	mov    $0x1a8,%esi
  404edd:	bf 01 00 00 00       	mov    $0x1,%edi
  404ee2:	e9 69 d3 ff ff       	jmp    402250 <calloc@plt>
  404ee7:	66 0f 1f 84 00 00 00 	nopw   0x0(%rax,%rax,1)
  404eee:	00 00 
  404ef0:	be b0 01 00 00       	mov    $0x1b0,%esi
  404ef5:	bf 01 00 00 00       	mov    $0x1,%edi
  404efa:	e9 51 d3 ff ff       	jmp    402250 <calloc@plt>
  404eff:	90                   	nop
  404f00:	be 68 01 00 00       	mov    $0x168,%esi
  404f05:	bf 01 00 00 00       	mov    $0x1,%edi
  404f0a:	e9 41 d3 ff ff       	jmp    402250 <calloc@plt>
  404f0f:	90                   	nop
  404f10:	48 85 ff             	test   %rdi,%rdi
  404f13:	74 1b                	je     404f30 <dlerror@plt+0x2a70>
  404f15:	55                   	push   %rbp
  404f16:	48 89 fd             	mov    %rdi,%rbp
  404f19:	ff 15 01 e5 00 00    	call   *0xe501(%rip)        # 413420 <stderr@GLIBC_2.2.5+0x4198>
  404f1f:	48 89 ef             	mov    %rbp,%rdi
  404f22:	5d                   	pop    %rbp
  404f23:	e9 38 d1 ff ff       	jmp    402060 <free@plt>
  404f28:	0f 1f 84 00 00 00 00 	nopl   0x0(%rax,%rax,1)
  404f2f:	00 
  404f30:	c3                   	ret    
  404f31:	66 66 2e 0f 1f 84 00 	data16 cs nopw 0x0(%rax,%rax,1)
  404f38:	00 00 00 00 
  404f3c:	0f 1f 40 00          	nopl   0x0(%rax)
  404f40:	48 8b 86 20 20 00 00 	mov    0x2020(%rsi),%rax
  404f47:	0f b6 96 61 40 00 00 	movzbl 0x4061(%rsi),%edx
  404f4e:	8b 80 28 10 00 00    	mov    0x1028(%rax),%eax
  404f54:	01 c0                	add    %eax,%eax
  404f56:	09 d0                	or     %edx,%eax
  404f58:	2d 68 02 00 00       	sub    $0x268,%eax
  404f5d:	83 f8 0b             	cmp    $0xb,%eax
  404f60:	0f 87 9a 00 00 00    	ja     405000 <dlerror@plt+0x2b40>
  404f66:	48 83 ec 28          	sub    $0x28,%rsp
  404f6a:	ff 24 c5 50 9e 40 00 	jmp    *0x409e50(,%rax,8)
  404f71:	0f 1f 80 00 00 00 00 	nopl   0x0(%rax)
  404f78:	48 8d 4e 20          	lea    0x20(%rsi),%rcx
  404f7c:	48 8d 57 70          	lea    0x70(%rdi),%rdx
  404f80:	48 89 fe             	mov    %rdi,%rsi
  404f83:	48 89 e7             	mov    %rsp,%rdi
  404f86:	ff 15 7c e4 00 00    	call   *0xe47c(%rip)        # 413408 <stderr@GLIBC_2.2.5+0x4180>
  404f8c:	ff 74 24 18          	push   0x18(%rsp)
  404f90:	ff 74 24 18          	push   0x18(%rsp)
  404f94:	ff 74 24 18          	push   0x18(%rsp)
  404f98:	ff 74 24 18          	push   0x18(%rsp)
  404f9c:	ff 15 ae e3 00 00    	call   *0xe3ae(%rip)        # 413350 <stderr@GLIBC_2.2.5+0x40c8>
  404fa2:	48 83 c4 20          	add    $0x20,%rsp
  404fa6:	85 c0                	test   %eax,%eax
  404fa8:	74 0b                	je     404fb5 <dlerror@plt+0x2af5>
  404faa:	66 0f 1f 44 00 00    	nopw   0x0(%rax,%rax,1)
  404fb0:	b8 ff ff ff ff       	mov    $0xffffffff,%eax
  404fb5:	48 83 c4 28          	add    $0x28,%rsp
  404fb9:	c3                   	ret    
  404fba:	66 0f 1f 44 00 00    	nopw   0x0(%rax,%rax,1)
  404fc0:	48 8d 4e 20          	lea    0x20(%rsi),%rcx
  404fc4:	48 8d 97 18 01 00 00 	lea    0x118(%rdi),%rdx
  404fcb:	eb b3                	jmp    404f80 <dlerror@plt+0x2ac0>
  404fcd:	0f 1f 00             	nopl   (%rax)
  404fd0:	48 8d 4e 20          	lea    0x20(%rsi),%rcx
  404fd4:	48 8d 97 10 01 00 00 	lea    0x110(%rdi),%rdx
  404fdb:	eb a3                	jmp    404f80 <dlerror@plt+0x2ac0>
  404fdd:	0f 1f 00             	nopl   (%rax)
  404fe0:	48 8d 4e 20          	lea    0x20(%rsi),%rcx
  404fe4:	48 8d 97 f0 00 00 00 	lea    0xf0(%rdi),%rdx
  404feb:	eb 93                	jmp    404f80 <dlerror@plt+0x2ac0>
  404fed:	0f 1f 00             	nopl   (%rax)
  404ff0:	48 8d 4e 20          	lea    0x20(%rsi),%rcx
  404ff4:	48 8d 97 08 01 00 00 	lea    0x108(%rdi),%rdx
  404ffb:	eb 83                	jmp    404f80 <dlerror@plt+0x2ac0>
  404ffd:	0f 1f 00             	nopl   (%rax)
  405000:	b8 ff ff ff ff       	mov    $0xffffffff,%eax
  405005:	c3                   	ret    
  405006:	66 2e 0f 1f 84 00 00 	cs nopw 0x0(%rax,%rax,1)
  40500d:	00 00 00 
  405010:	48 8b 86 20 20 00 00 	mov    0x2020(%rsi),%rax
  405017:	0f b6 96 61 40 00 00 	movzbl 0x4061(%rsi),%edx
  40501e:	8b 80 28 10 00 00    	mov    0x1028(%rax),%eax
  405024:	01 c0                	add    %eax,%eax
  405026:	09 d0                	or     %edx,%eax
  405028:	2d 68 02 00 00       	sub    $0x268,%eax
  40502d:	83 f8 0b             	cmp    $0xb,%eax
  405030:	0f 87 b2 00 00 00    	ja     4050e8 <dlerror@plt+0x2c28>
  405036:	48 83 ec 28          	sub    $0x28,%rsp
  40503a:	ff 24 c5 b0 9e 40 00 	jmp    *0x409eb0(,%rax,8)
  405041:	0f 1f 80 00 00 00 00 	nopl   0x0(%rax)
  405048:	b8 ff ff ff ff       	mov    $0xffffffff,%eax
  40504d:	48 83 c4 28          	add    $0x28,%rsp
  405051:	c3                   	ret    
  405052:	66 0f 1f 44 00 00    	nopw   0x0(%rax,%rax,1)
  405058:	48 8d 8e 32 20 00 00 	lea    0x2032(%rsi),%rcx
  40505f:	48 8d 97 f0 00 00 00 	lea    0xf0(%rdi),%rdx
  405066:	48 89 fe             	mov    %rdi,%rsi
  405069:	48 89 e7             	mov    %rsp,%rdi
  40506c:	ff 15 96 e3 00 00    	call   *0xe396(%rip)        # 413408 <stderr@GLIBC_2.2.5+0x4180>
  405072:	ff 74 24 18          	push   0x18(%rsp)
  405076:	ff 74 24 18          	push   0x18(%rsp)
  40507a:	ff 74 24 18          	push   0x18(%rsp)
  40507e:	ff 74 24 18          	push   0x18(%rsp)
  405082:	ff 15 c8 e2 00 00    	call   *0xe2c8(%rip)        # 413350 <stderr@GLIBC_2.2.5+0x40c8>
  405088:	48 83 c4 20          	add    $0x20,%rsp
  40508c:	85 c0                	test   %eax,%eax
  40508e:	0f 95 c0             	setne  %al
  405091:	48 83 c4 28          	add    $0x28,%rsp
  405095:	0f b6 c0             	movzbl %al,%eax
  405098:	f7 d8                	neg    %eax
  40509a:	c3                   	ret    
  40509b:	0f 1f 44 00 00       	nopl   0x0(%rax,%rax,1)
  4050a0:	48 8d 8e 32 20 00 00 	lea    0x2032(%rsi),%rcx
  4050a7:	48 8d 97 28 01 00 00 	lea    0x128(%rdi),%rdx
  4050ae:	eb b6                	jmp    405066 <dlerror@plt+0x2ba6>
  4050b0:	48 8d 8e 32 20 00 00 	lea    0x2032(%rsi),%rcx
  4050b7:	48 8d 97 20 01 00 00 	lea    0x120(%rdi),%rdx
  4050be:	eb a6                	jmp    405066 <dlerror@plt+0x2ba6>
  4050c0:	48 8d 8e 32 20 00 00 	lea    0x2032(%rsi),%rcx
  4050c7:	48 8d 97 00 01 00 00 	lea    0x100(%rdi),%rdx
  4050ce:	eb 96                	jmp    405066 <dlerror@plt+0x2ba6>
  4050d0:	48 8d 8e 32 20 00 00 	lea    0x2032(%rsi),%rcx
  4050d7:	48 8d 97 18 01 00 00 	lea    0x118(%rdi),%rdx
  4050de:	e9 83 ff ff ff       	jmp    405066 <dlerror@plt+0x2ba6>
  4050e3:	0f 1f 44 00 00       	nopl   0x0(%rax,%rax,1)
  4050e8:	b8 ff ff ff ff       	mov    $0xffffffff,%eax
  4050ed:	c3                   	ret    
  4050ee:	66 90                	xchg   %ax,%ax
  4050f0:	41 54                	push   %r12
  4050f2:	41 b8 28 9c 40 00    	mov    $0x409c28,%r8d
  4050f8:	49 89 f4             	mov    %rsi,%r12
  4050fb:	b9 01 10 00 00       	mov    $0x1001,%ecx
  405100:	55                   	push   %rbp
  405101:	ba 01 00 00 00       	mov    $0x1,%edx
  405106:	48 89 fd             	mov    %rdi,%rbp
  405109:	31 c0                	xor    %eax,%eax
  40510b:	53                   	push   %rbx
  40510c:	48 8d 9e 32 20 00 00 	lea    0x2032(%rsi),%rbx
  405113:	be 00 10 00 00       	mov    $0x1000,%esi
  405118:	49 89 d9             	mov    %rbx,%r9
  40511b:	48 81 ec 80 20 00 00 	sub    $0x2080,%rsp
  405122:	68 d1 9d 40 00       	push   $0x409dd1
  405127:	6a 2f                	push   $0x2f
  405129:	48 8d 7c 24 70       	lea    0x70(%rsp),%rdi
  40512e:	e8 0d cf ff ff       	call   402040 <__snprintf_chk@plt>
  405133:	5e                   	pop    %rsi
  405134:	5f                   	pop    %rdi
  405135:	3d ff 0f 00 00       	cmp    $0xfff,%eax
  40513a:	0f 8f fe 01 00 00    	jg     40533e <dlerror@plt+0x2e7e>
  405140:	68 e2 9d 40 00       	push   $0x409de2
  405145:	b9 01 10 00 00       	mov    $0x1001,%ecx
  40514a:	49 89 d9             	mov    %rbx,%r9
  40514d:	31 c0                	xor    %eax,%eax
  40514f:	6a 2f                	push   $0x2f
  405151:	ba 01 00 00 00       	mov    $0x1,%edx
  405156:	41 b8 28 9c 40 00    	mov    $0x409c28,%r8d
  40515c:	be 00 10 00 00       	mov    $0x1000,%esi
  405161:	48 8d bc 24 80 10 00 	lea    0x1080(%rsp),%rdi
  405168:	00 
  405169:	e8 d2 ce ff ff       	call   402040 <__snprintf_chk@plt>
  40516e:	5a                   	pop    %rdx
  40516f:	59                   	pop    %rcx
  405170:	3d ff 0f 00 00       	cmp    $0xfff,%eax
  405175:	0f 8f c3 01 00 00    	jg     40533e <dlerror@plt+0x2e7e>
  40517b:	48 8d 84 24 70 10 00 	lea    0x1070(%rsp),%rax
  405182:	00 
  405183:	48 89 5c 24 10       	mov    %rbx,0x10(%rsp)
  405188:	48 8d 7c 24 60       	lea    0x60(%rsp),%rdi
  40518d:	31 db                	xor    %ebx,%ebx
  40518f:	48 89 44 24 08       	mov    %rax,0x8(%rsp)
  405194:	31 f6                	xor    %esi,%esi
  405196:	ff 15 b4 e2 00 00    	call   *0xe2b4(%rip)        # 413450 <stderr@GLIBC_2.2.5+0x41c8>
  40519c:	48 89 44 1c 20       	mov    %rax,0x20(%rsp,%rbx,1)
  4051a1:	48 83 c3 08          	add    $0x8,%rbx
  4051a5:	48 83 fb 18          	cmp    $0x18,%rbx
  4051a9:	74 0d                	je     4051b8 <dlerror@plt+0x2cf8>
  4051ab:	48 8b 3c 1c          	mov    (%rsp,%rbx,1),%rdi
  4051af:	eb e3                	jmp    405194 <dlerror@plt+0x2cd4>
  4051b1:	0f 1f 80 00 00 00 00 	nopl   0x0(%rax)
  4051b8:	49 8b 84 24 20 20 00 	mov    0x2020(%r12),%rax
  4051bf:	00 
  4051c0:	41 0f b6 94 24 61 40 	movzbl 0x4061(%r12),%edx
  4051c7:	00 00 
  4051c9:	8b 80 28 10 00 00    	mov    0x1028(%rax),%eax
  4051cf:	01 c0                	add    %eax,%eax
  4051d1:	09 d0                	or     %edx,%eax
  4051d3:	2d 68 02 00 00       	sub    $0x268,%eax
  4051d8:	83 f8 0b             	cmp    $0xb,%eax
  4051db:	77 0b                	ja     4051e8 <dlerror@plt+0x2d28>
  4051dd:	ff 24 c5 10 9f 40 00 	jmp    *0x409f10(,%rax,8)
  4051e4:	0f 1f 40 00          	nopl   0x0(%rax)
  4051e8:	41 bc ff ff ff ff    	mov    $0xffffffff,%r12d
  4051ee:	48 8d 5c 24 20       	lea    0x20(%rsp),%rbx
  4051f3:	48 8d 6c 24 38       	lea    0x38(%rsp),%rbp
  4051f8:	48 8b 3b             	mov    (%rbx),%rdi
  4051fb:	48 83 c3 08          	add    $0x8,%rbx
  4051ff:	ff 15 93 e1 00 00    	call   *0xe193(%rip)        # 413398 <stderr@GLIBC_2.2.5+0x4110>
  405205:	48 39 eb             	cmp    %rbp,%rbx
  405208:	75 ee                	jne    4051f8 <dlerror@plt+0x2d38>
  40520a:	48 81 c4 80 20 00 00 	add    $0x2080,%rsp
  405211:	44 89 e0             	mov    %r12d,%eax
  405214:	5b                   	pop    %rbx
  405215:	5d                   	pop    %rbp
  405216:	41 5c                	pop    %r12
  405218:	c3                   	ret    
  405219:	0f 1f 80 00 00 00 00 	nopl   0x0(%rax)
  405220:	48 8d 95 00 01 00 00 	lea    0x100(%rbp),%rdx
  405227:	4c 8d 44 24 20       	lea    0x20(%rsp),%r8
  40522c:	b9 03 00 00 00       	mov    $0x3,%ecx
  405231:	48 89 ee             	mov    %rbp,%rsi
  405234:	48 8d 7c 24 40       	lea    0x40(%rsp),%rdi
  405239:	ff 15 b9 e1 00 00    	call   *0xe1b9(%rip)        # 4133f8 <stderr@GLIBC_2.2.5+0x4170>
  40523f:	c7 85 f8 00 00 00 01 	movl   $0x1,0xf8(%rbp)
  405246:	00 00 00 
  405249:	ff 74 24 58          	push   0x58(%rsp)
  40524d:	45 31 e4             	xor    %r12d,%r12d
  405250:	ff 74 24 58          	push   0x58(%rsp)
  405254:	ff 74 24 58          	push   0x58(%rsp)
  405258:	ff 74 24 58          	push   0x58(%rsp)
  40525c:	ff 15 ee e0 00 00    	call   *0xe0ee(%rip)        # 413350 <stderr@GLIBC_2.2.5+0x40c8>
  405262:	48 83 c4 20          	add    $0x20,%rsp
  405266:	85 c0                	test   %eax,%eax
  405268:	41 0f 95 c4          	setne  %r12b
  40526c:	41 f7 dc             	neg    %r12d
  40526f:	e9 7a ff ff ff       	jmp    4051ee <dlerror@plt+0x2d2e>
  405274:	0f 1f 40 00          	nopl   0x0(%rax)
  405278:	48 8d 95 40 01 00 00 	lea    0x140(%rbp),%rdx
  40527f:	4c 8d 44 24 20       	lea    0x20(%rsp),%r8
  405284:	b9 03 00 00 00       	mov    $0x3,%ecx
  405289:	48 89 ee             	mov    %rbp,%rsi
  40528c:	48 8d 7c 24 40       	lea    0x40(%rsp),%rdi
  405291:	ff 15 61 e1 00 00    	call   *0xe161(%rip)        # 4133f8 <stderr@GLIBC_2.2.5+0x4170>
  405297:	c7 85 38 01 00 00 01 	movl   $0x1,0x138(%rbp)
  40529e:	00 00 00 
  4052a1:	eb a6                	jmp    405249 <dlerror@plt+0x2d89>
  4052a3:	0f 1f 44 00 00       	nopl   0x0(%rax,%rax,1)
  4052a8:	48 8d 95 38 01 00 00 	lea    0x138(%rbp),%rdx
  4052af:	4c 8d 44 24 20       	lea    0x20(%rsp),%r8
  4052b4:	b9 03 00 00 00       	mov    $0x3,%ecx
  4052b9:	48 89 ee             	mov    %rbp,%rsi
  4052bc:	48 8d 7c 24 40       	lea    0x40(%rsp),%rdi
  4052c1:	ff 15 31 e1 00 00    	call   *0xe131(%rip)        # 4133f8 <stderr@GLIBC_2.2.5+0x4170>
  4052c7:	c7 85 30 01 00 00 01 	movl   $0x1,0x130(%rbp)
  4052ce:	00 00 00 
  4052d1:	e9 73 ff ff ff       	jmp    405249 <dlerror@plt+0x2d89>
  4052d6:	66 2e 0f 1f 84 00 00 	cs nopw 0x0(%rax,%rax,1)
  4052dd:	00 00 00 
  4052e0:	48 8d 95 18 01 00 00 	lea    0x118(%rbp),%rdx
  4052e7:	4c 8d 44 24 20       	lea    0x20(%rsp),%r8
  4052ec:	b9 03 00 00 00       	mov    $0x3,%ecx
  4052f1:	48 89 ee             	mov    %rbp,%rsi
  4052f4:	48 8d 7c 24 40       	lea    0x40(%rsp),%rdi
  4052f9:	ff 15 f9 e0 00 00    	call   *0xe0f9(%rip)        # 4133f8 <stderr@GLIBC_2.2.5+0x4170>
  4052ff:	c7 85 10 01 00 00 01 	movl   $0x1,0x110(%rbp)
  405306:	00 00 00 
  405309:	e9 3b ff ff ff       	jmp    405249 <dlerror@plt+0x2d89>
  40530e:	66 90                	xchg   %ax,%ax
  405310:	48 8d 95 30 01 00 00 	lea    0x130(%rbp),%rdx
  405317:	4c 8d 44 24 20       	lea    0x20(%rsp),%r8
  40531c:	b9 03 00 00 00       	mov    $0x3,%ecx
  405321:	48 89 ee             	mov    %rbp,%rsi
  405324:	48 8d 7c 24 40       	lea    0x40(%rsp),%rdi
  405329:	ff 15 c9 e0 00 00    	call   *0xe0c9(%rip)        # 4133f8 <stderr@GLIBC_2.2.5+0x4170>
  40532f:	c7 85 28 01 00 00 01 	movl   $0x1,0x128(%rbp)
  405336:	00 00 00 
  405339:	e9 0b ff ff ff       	jmp    405249 <dlerror@plt+0x2d89>
  40533e:	41 bc ff ff ff ff    	mov    $0xffffffff,%r12d
  405344:	e9 c1 fe ff ff       	jmp    40520a <dlerror@plt+0x2d4a>
  405349:	0f 1f 80 00 00 00 00 	nopl   0x0(%rax)
  405350:	41 57                	push   %r15
  405352:	41 56                	push   %r14
  405354:	49 89 f6             	mov    %rsi,%r14
  405357:	41 55                	push   %r13
  405359:	41 54                	push   %r12
  40535b:	55                   	push   %rbp
  40535c:	53                   	push   %rbx
  40535d:	48 83 ec 38          	sub    $0x38,%rsp
  405361:	4c 8b 7e 18          	mov    0x18(%rsi),%r15
  405365:	48 89 7c 24 08       	mov    %rdi,0x8(%rsp)
  40536a:	4d 85 ff             	test   %r15,%r15
  40536d:	0f 84 1d 01 00 00    	je     405490 <dlerror@plt+0x2fd0>
  405373:	44 8b 66 10          	mov    0x10(%rsi),%r12d
  405377:	4d 63 ec             	movslq %r12d,%r13
  40537a:	be 08 00 00 00       	mov    $0x8,%esi
  40537f:	4c 89 ef             	mov    %r13,%rdi
  405382:	e8 c9 ce ff ff       	call   402250 <calloc@plt>
  405387:	48 89 c5             	mov    %rax,%rbp
  40538a:	48 85 c0             	test   %rax,%rax
  40538d:	0f 84 62 01 00 00    	je     4054f5 <dlerror@plt+0x3035>
  405393:	45 85 e4             	test   %r12d,%r12d
  405396:	0f 8e 24 01 00 00    	jle    4054c0 <dlerror@plt+0x3000>
  40539c:	31 db                	xor    %ebx,%ebx
  40539e:	66 90                	xchg   %ax,%ax
  4053a0:	49 8b 3c df          	mov    (%r15,%rbx,8),%rdi
  4053a4:	31 f6                	xor    %esi,%esi
  4053a6:	ff 15 a4 e0 00 00    	call   *0xe0a4(%rip)        # 413450 <stderr@GLIBC_2.2.5+0x41c8>
  4053ac:	48 89 44 dd 00       	mov    %rax,0x0(%rbp,%rbx,8)
  4053b1:	48 83 c3 01          	add    $0x1,%rbx
  4053b5:	49 39 dd             	cmp    %rbx,%r13
  4053b8:	75 e6                	jne    4053a0 <dlerror@plt+0x2ee0>
  4053ba:	49 8b 86 20 20 00 00 	mov    0x2020(%r14),%rax
  4053c1:	41 0f b6 96 61 40 00 	movzbl 0x4061(%r14),%edx
  4053c8:	00 
  4053c9:	8b 80 28 10 00 00    	mov    0x1028(%rax),%eax
  4053cf:	01 c0                	add    %eax,%eax
  4053d1:	09 d0                	or     %edx,%eax
  4053d3:	2d 68 02 00 00       	sub    $0x268,%eax
  4053d8:	83 f8 0b             	cmp    $0xb,%eax
  4053db:	0f 87 8f 00 00 00    	ja     405470 <dlerror@plt+0x2fb0>
  4053e1:	ff 24 c5 70 9f 40 00 	jmp    *0x409f70(,%rax,8)
  4053e8:	0f 1f 84 00 00 00 00 	nopl   0x0(%rax,%rax,1)
  4053ef:	00 
  4053f0:	48 8b 74 24 08       	mov    0x8(%rsp),%rsi
  4053f5:	48 8d 96 80 00 00 00 	lea    0x80(%rsi),%rdx
  4053fc:	48 8d 7c 24 10       	lea    0x10(%rsp),%rdi
  405401:	4c 89 e9             	mov    %r13,%rcx
  405404:	49 89 e8             	mov    %rbp,%r8
  405407:	45 31 ed             	xor    %r13d,%r13d
  40540a:	ff 15 e8 df 00 00    	call   *0xdfe8(%rip)        # 4133f8 <stderr@GLIBC_2.2.5+0x4170>
  405410:	ff 74 24 28          	push   0x28(%rsp)
  405414:	ff 74 24 28          	push   0x28(%rsp)
  405418:	ff 74 24 28          	push   0x28(%rsp)
  40541c:	ff 74 24 28          	push   0x28(%rsp)
  405420:	ff 15 2a df 00 00    	call   *0xdf2a(%rip)        # 413350 <stderr@GLIBC_2.2.5+0x40c8>
  405426:	48 83 c4 20          	add    $0x20,%rsp
  40542a:	85 c0                	test   %eax,%eax
  40542c:	41 0f 95 c5          	setne  %r13b
  405430:	41 f7 dd             	neg    %r13d
  405433:	45 85 e4             	test   %r12d,%r12d
  405436:	7e 1c                	jle    405454 <dlerror@plt+0x2f94>
  405438:	31 db                	xor    %ebx,%ebx
  40543a:	66 0f 1f 44 00 00    	nopw   0x0(%rax,%rax,1)
  405440:	48 8b 7c dd 00       	mov    0x0(%rbp,%rbx,8),%rdi
  405445:	48 83 c3 01          	add    $0x1,%rbx
  405449:	ff 15 49 df 00 00    	call   *0xdf49(%rip)        # 413398 <stderr@GLIBC_2.2.5+0x4110>
  40544f:	41 39 dc             	cmp    %ebx,%r12d
  405452:	7f ec                	jg     405440 <dlerror@plt+0x2f80>
  405454:	48 89 ef             	mov    %rbp,%rdi
  405457:	e8 04 cc ff ff       	call   402060 <free@plt>
  40545c:	48 83 c4 38          	add    $0x38,%rsp
  405460:	44 89 e8             	mov    %r13d,%eax
  405463:	5b                   	pop    %rbx
  405464:	5d                   	pop    %rbp
  405465:	41 5c                	pop    %r12
  405467:	41 5d                	pop    %r13
  405469:	41 5e                	pop    %r14
  40546b:	41 5f                	pop    %r15
  40546d:	c3                   	ret    
  40546e:	66 90                	xchg   %ax,%ax
  405470:	41 bd ff ff ff ff    	mov    $0xffffffff,%r13d
  405476:	eb c0                	jmp    405438 <dlerror@plt+0x2f78>
  405478:	0f 1f 84 00 00 00 00 	nopl   0x0(%rax,%rax,1)
  40547f:	00 
  405480:	48 8b 74 24 08       	mov    0x8(%rsp),%rsi
  405485:	48 8d 56 60          	lea    0x60(%rsi),%rdx
  405489:	e9 6e ff ff ff       	jmp    4053fc <dlerror@plt+0x2f3c>
  40548e:	66 90                	xchg   %ax,%ax
  405490:	44 8b 26             	mov    (%rsi),%r12d
  405493:	4c 8b 7e 08          	mov    0x8(%rsi),%r15
  405497:	e9 db fe ff ff       	jmp    405377 <dlerror@plt+0x2eb7>
  40549c:	48 8b 74 24 08       	mov    0x8(%rsp),%rsi
  4054a1:	48 8d 56 68          	lea    0x68(%rsi),%rdx
  4054a5:	e9 52 ff ff ff       	jmp    4053fc <dlerror@plt+0x2f3c>
  4054aa:	48 8b 74 24 08       	mov    0x8(%rsp),%rsi
  4054af:	48 8d 56 78          	lea    0x78(%rsi),%rdx
  4054b3:	e9 44 ff ff ff       	jmp    4053fc <dlerror@plt+0x2f3c>
  4054b8:	0f 1f 84 00 00 00 00 	nopl   0x0(%rax,%rax,1)
  4054bf:	00 
  4054c0:	49 8b 86 20 20 00 00 	mov    0x2020(%r14),%rax
  4054c7:	41 0f b6 96 61 40 00 	movzbl 0x4061(%r14),%edx
  4054ce:	00 
  4054cf:	8b 80 28 10 00 00    	mov    0x1028(%rax),%eax
  4054d5:	01 c0                	add    %eax,%eax
  4054d7:	09 d0                	or     %edx,%eax
  4054d9:	2d 68 02 00 00       	sub    $0x268,%eax
  4054de:	83 f8 0b             	cmp    $0xb,%eax
  4054e1:	77 07                	ja     4054ea <dlerror@plt+0x302a>
  4054e3:	ff 24 c5 d0 9f 40 00 	jmp    *0x409fd0(,%rax,8)
  4054ea:	41 bd ff ff ff ff    	mov    $0xffffffff,%r13d
  4054f0:	e9 5f ff ff ff       	jmp    405454 <dlerror@plt+0x2f94>
  4054f5:	41 83 cd ff          	or     $0xffffffff,%r13d
  4054f9:	e9 5e ff ff ff       	jmp    40545c <dlerror@plt+0x2f9c>
  4054fe:	66 90                	xchg   %ax,%ax
  405500:	55                   	push   %rbp
  405501:	48 89 d5             	mov    %rdx,%rbp
  405504:	53                   	push   %rbx
  405505:	48 83 ec 28          	sub    $0x28,%rsp
  405509:	48 8b 86 20 20 00 00 	mov    0x2020(%rsi),%rax
  405510:	0f b6 96 61 40 00 00 	movzbl 0x4061(%rsi),%edx
  405517:	8b 80 28 10 00 00    	mov    0x1028(%rax),%eax
  40551d:	01 c0                	add    %eax,%eax
  40551f:	09 d0                	or     %edx,%eax
  405521:	2d 68 02 00 00       	sub    $0x268,%eax
  405526:	83 f8 0b             	cmp    $0xb,%eax
  405529:	0f 87 b6 00 00 00    	ja     4055e5 <dlerror@plt+0x3125>
  40552f:	48 89 fb             	mov    %rdi,%rbx
  405532:	ff 24 c5 30 a0 40 00 	jmp    *0x40a030(,%rax,8)
  405539:	0f 1f 80 00 00 00 00 	nopl   0x0(%rax)
  405540:	c7 87 b0 00 00 00 00 	movl   $0x0,0xb0(%rdi)
  405547:	00 00 00 
  40554a:	c7 87 cc 00 00 00 00 	movl   $0x0,0xcc(%rdi)
  405551:	00 00 00 
  405554:	c7 87 dc 00 00 00 01 	movl   $0x1,0xdc(%rdi)
  40555b:	00 00 00 
  40555e:	8b 45 08             	mov    0x8(%rbp),%eax
  405561:	89 87 c4 00 00 00    	mov    %eax,0xc4(%rdi)
  405567:	8b 55 04             	mov    0x4(%rbp),%edx
  40556a:	31 c0                	xor    %eax,%eax
  40556c:	85 d2                	test   %edx,%edx
  40556e:	0f 94 c0             	sete   %al
  405571:	89 87 e0 00 00 00    	mov    %eax,0xe0(%rdi)
  405577:	8b 45 00             	mov    0x0(%rbp),%eax
  40557a:	89 87 d0 00 00 00    	mov    %eax,0xd0(%rdi)
  405580:	8b 45 0c             	mov    0xc(%rbp),%eax
  405583:	89 47 14             	mov    %eax,0x14(%rdi)
  405586:	48 8b 45 10          	mov    0x10(%rbp),%rax
  40558a:	48 89 47 18          	mov    %rax,0x18(%rdi)
  40558e:	8b 45 1c             	mov    0x1c(%rbp),%eax
  405591:	89 47 0c             	mov    %eax,0xc(%rdi)
  405594:	48 63 4d 20          	movslq 0x20(%rbp),%rcx
  405598:	85 c9                	test   %ecx,%ecx
  40559a:	0f 85 10 01 00 00    	jne    4056b0 <dlerror@plt+0x31f0>
  4055a0:	48 63 4d 30          	movslq 0x30(%rbp),%rcx
  4055a4:	85 c9                	test   %ecx,%ecx
  4055a6:	0f 84 f4 00 00 00    	je     4056a0 <dlerror@plt+0x31e0>
  4055ac:	48 8d 93 90 00 00 00 	lea    0x90(%rbx),%rdx
  4055b3:	48 89 e7             	mov    %rsp,%rdi
  4055b6:	4c 8b 45 38          	mov    0x38(%rbp),%r8
  4055ba:	48 89 de             	mov    %rbx,%rsi
  4055bd:	ff 15 35 de 00 00    	call   *0xde35(%rip)        # 4133f8 <stderr@GLIBC_2.2.5+0x4170>
  4055c3:	ff 74 24 18          	push   0x18(%rsp)
  4055c7:	ff 74 24 18          	push   0x18(%rsp)
  4055cb:	ff 74 24 18          	push   0x18(%rsp)
  4055cf:	ff 74 24 18          	push   0x18(%rsp)
  4055d3:	ff 15 77 dd 00 00    	call   *0xdd77(%rip)        # 413350 <stderr@GLIBC_2.2.5+0x40c8>
  4055d9:	48 83 c4 20          	add    $0x20,%rsp
  4055dd:	85 c0                	test   %eax,%eax
  4055df:	0f 84 bb 00 00 00    	je     4056a0 <dlerror@plt+0x31e0>
  4055e5:	48 83 c4 28          	add    $0x28,%rsp
  4055e9:	b8 ff ff ff ff       	mov    $0xffffffff,%eax
  4055ee:	5b                   	pop    %rbx
  4055ef:	5d                   	pop    %rbp
  4055f0:	c3                   	ret    
  4055f1:	0f 1f 80 00 00 00 00 	nopl   0x0(%rax)
  4055f8:	c7 87 98 00 00 00 00 	movl   $0x0,0x98(%rdi)
  4055ff:	00 00 00 
  405602:	c7 87 b0 00 00 00 00 	movl   $0x0,0xb0(%rdi)
  405609:	00 00 00 
  40560c:	c7 87 c0 00 00 00 01 	movl   $0x1,0xc0(%rdi)
  405613:	00 00 00 
  405616:	8b 45 08             	mov    0x8(%rbp),%eax
  405619:	89 87 a8 00 00 00    	mov    %eax,0xa8(%rdi)
  40561f:	8b 7d 04             	mov    0x4(%rbp),%edi
  405622:	31 c0                	xor    %eax,%eax
  405624:	85 ff                	test   %edi,%edi
  405626:	0f 94 c0             	sete   %al
  405629:	89 83 c4 00 00 00    	mov    %eax,0xc4(%rbx)
  40562f:	8b 45 00             	mov    0x0(%rbp),%eax
  405632:	89 83 b4 00 00 00    	mov    %eax,0xb4(%rbx)
  405638:	8b 45 0c             	mov    0xc(%rbp),%eax
  40563b:	89 43 14             	mov    %eax,0x14(%rbx)
  40563e:	48 8b 45 10          	mov    0x10(%rbp),%rax
  405642:	48 89 43 18          	mov    %rax,0x18(%rbx)
  405646:	8b 45 1c             	mov    0x1c(%rbp),%eax
  405649:	89 43 0c             	mov    %eax,0xc(%rbx)
  40564c:	48 63 4d 20          	movslq 0x20(%rbp),%rcx
  405650:	85 c9                	test   %ecx,%ecx
  405652:	74 39                	je     40568d <dlerror@plt+0x31cd>
  405654:	48 89 e7             	mov    %rsp,%rdi
  405657:	4c 8b 45 28          	mov    0x28(%rbp),%r8
  40565b:	48 8d 93 88 00 00 00 	lea    0x88(%rbx),%rdx
  405662:	48 89 de             	mov    %rbx,%rsi
  405665:	ff 15 8d dd 00 00    	call   *0xdd8d(%rip)        # 4133f8 <stderr@GLIBC_2.2.5+0x4170>
  40566b:	ff 74 24 18          	push   0x18(%rsp)
  40566f:	ff 74 24 18          	push   0x18(%rsp)
  405673:	ff 74 24 18          	push   0x18(%rsp)
  405677:	ff 74 24 18          	push   0x18(%rsp)
  40567b:	ff 15 cf dc 00 00    	call   *0xdccf(%rip)        # 413350 <stderr@GLIBC_2.2.5+0x40c8>
  405681:	48 83 c4 20          	add    $0x20,%rsp
  405685:	85 c0                	test   %eax,%eax
  405687:	0f 85 58 ff ff ff    	jne    4055e5 <dlerror@plt+0x3125>
  40568d:	48 63 4d 30          	movslq 0x30(%rbp),%rcx
  405691:	85 c9                	test   %ecx,%ecx
  405693:	74 0b                	je     4056a0 <dlerror@plt+0x31e0>
  405695:	48 8d 53 78          	lea    0x78(%rbx),%rdx
  405699:	e9 15 ff ff ff       	jmp    4055b3 <dlerror@plt+0x30f3>
  40569e:	66 90                	xchg   %ax,%ax
  4056a0:	c7 43 10 01 00 00 00 	movl   $0x1,0x10(%rbx)
  4056a7:	48 83 c4 28          	add    $0x28,%rsp
  4056ab:	31 c0                	xor    %eax,%eax
  4056ad:	5b                   	pop    %rbx
  4056ae:	5d                   	pop    %rbp
  4056af:	c3                   	ret    
  4056b0:	48 8d 97 a0 00 00 00 	lea    0xa0(%rdi),%rdx
  4056b7:	48 89 fe             	mov    %rdi,%rsi
  4056ba:	4c 8b 45 28          	mov    0x28(%rbp),%r8
  4056be:	48 89 e7             	mov    %rsp,%rdi
  4056c1:	ff 15 31 dd 00 00    	call   *0xdd31(%rip)        # 4133f8 <stderr@GLIBC_2.2.5+0x4170>
  4056c7:	ff 74 24 18          	push   0x18(%rsp)
  4056cb:	ff 74 24 18          	push   0x18(%rsp)
  4056cf:	ff 74 24 18          	push   0x18(%rsp)
  4056d3:	ff 74 24 18          	push   0x18(%rsp)
  4056d7:	ff 15 73 dc 00 00    	call   *0xdc73(%rip)        # 413350 <stderr@GLIBC_2.2.5+0x40c8>
  4056dd:	48 83 c4 20          	add    $0x20,%rsp
  4056e1:	85 c0                	test   %eax,%eax
  4056e3:	0f 85 fc fe ff ff    	jne    4055e5 <dlerror@plt+0x3125>
  4056e9:	48 63 4d 30          	movslq 0x30(%rbp),%rcx
  4056ed:	85 c9                	test   %ecx,%ecx
  4056ef:	0f 85 b7 fe ff ff    	jne    4055ac <dlerror@plt+0x30ec>
  4056f5:	eb a9                	jmp    4056a0 <dlerror@plt+0x31e0>
  4056f7:	66 0f 1f 84 00 00 00 	nopw   0x0(%rax,%rax,1)
  4056fe:	00 00 
  405700:	8b 45 08             	mov    0x8(%rbp),%eax
  405703:	8b 75 04             	mov    0x4(%rbp),%esi
  405706:	c7 87 98 00 00 00 00 	movl   $0x0,0x98(%rdi)
  40570d:	00 00 00 
  405710:	c7 87 b4 00 00 00 00 	movl   $0x0,0xb4(%rdi)
  405717:	00 00 00 
  40571a:	89 87 ac 00 00 00    	mov    %eax,0xac(%rdi)
  405720:	31 c0                	xor    %eax,%eax
  405722:	85 f6                	test   %esi,%esi
  405724:	c7 87 c4 00 00 00 01 	movl   $0x1,0xc4(%rdi)
  40572b:	00 00 00 
  40572e:	0f 94 c0             	sete   %al
  405731:	89 87 c8 00 00 00    	mov    %eax,0xc8(%rdi)
  405737:	8b 45 00             	mov    0x0(%rbp),%eax
  40573a:	89 87 b8 00 00 00    	mov    %eax,0xb8(%rdi)
  405740:	e9 f3 fe ff ff       	jmp    405638 <dlerror@plt+0x3178>
  405745:	0f 1f 00             	nopl   (%rax)
  405748:	8b 45 08             	mov    0x8(%rbp),%eax
  40574b:	8b 4d 04             	mov    0x4(%rbp),%ecx
  40574e:	c7 87 a8 00 00 00 00 	movl   $0x0,0xa8(%rdi)
  405755:	00 00 00 
  405758:	c7 87 c4 00 00 00 00 	movl   $0x0,0xc4(%rdi)
  40575f:	00 00 00 
  405762:	89 87 bc 00 00 00    	mov    %eax,0xbc(%rdi)
  405768:	31 c0                	xor    %eax,%eax
  40576a:	85 c9                	test   %ecx,%ecx
  40576c:	48 63 4d 20          	movslq 0x20(%rbp),%rcx
  405770:	c7 87 d4 00 00 00 01 	movl   $0x1,0xd4(%rdi)
  405777:	00 00 00 
  40577a:	0f 94 c0             	sete   %al
  40577d:	89 87 d8 00 00 00    	mov    %eax,0xd8(%rdi)
  405783:	8b 45 00             	mov    0x0(%rbp),%eax
  405786:	89 87 c8 00 00 00    	mov    %eax,0xc8(%rdi)
  40578c:	8b 45 0c             	mov    0xc(%rbp),%eax
  40578f:	89 47 14             	mov    %eax,0x14(%rdi)
  405792:	48 8b 45 10          	mov    0x10(%rbp),%rax
  405796:	48 89 47 18          	mov    %rax,0x18(%rdi)
  40579a:	8b 45 1c             	mov    0x1c(%rbp),%eax
  40579d:	89 47 0c             	mov    %eax,0xc(%rdi)
  4057a0:	85 c9                	test   %ecx,%ecx
  4057a2:	74 39                	je     4057dd <dlerror@plt+0x331d>
  4057a4:	48 8d 97 98 00 00 00 	lea    0x98(%rdi),%rdx
  4057ab:	48 89 fe             	mov    %rdi,%rsi
  4057ae:	4c 8b 45 28          	mov    0x28(%rbp),%r8
  4057b2:	48 89 e7             	mov    %rsp,%rdi
  4057b5:	ff 15 3d dc 00 00    	call   *0xdc3d(%rip)        # 4133f8 <stderr@GLIBC_2.2.5+0x4170>
  4057bb:	ff 74 24 18          	push   0x18(%rsp)
  4057bf:	ff 74 24 18          	push   0x18(%rsp)
  4057c3:	ff 74 24 18          	push   0x18(%rsp)
  4057c7:	ff 74 24 18          	push   0x18(%rsp)
  4057cb:	ff 15 7f db 00 00    	call   *0xdb7f(%rip)        # 413350 <stderr@GLIBC_2.2.5+0x40c8>
  4057d1:	48 83 c4 20          	add    $0x20,%rsp
  4057d5:	85 c0                	test   %eax,%eax
  4057d7:	0f 85 08 fe ff ff    	jne    4055e5 <dlerror@plt+0x3125>
  4057dd:	48 63 4d 30          	movslq 0x30(%rbp),%rcx
  4057e1:	85 c9                	test   %ecx,%ecx
  4057e3:	0f 84 b7 fe ff ff    	je     4056a0 <dlerror@plt+0x31e0>
  4057e9:	48 8d 93 88 00 00 00 	lea    0x88(%rbx),%rdx
  4057f0:	e9 be fd ff ff       	jmp    4055b3 <dlerror@plt+0x30f3>
  4057f5:	66 66 2e 0f 1f 84 00 	data16 cs nopw 0x0(%rax,%rax,1)
  4057fc:	00 00 00 00 
  405800:	53                   	push   %rbx
  405801:	48 89 fb             	mov    %rdi,%rbx
  405804:	48 83 ec 50          	sub    $0x50,%rsp
  405808:	48 8d 7c 24 20       	lea    0x20(%rsp),%rdi
  40580d:	ff 15 4d db 00 00    	call   *0xdb4d(%rip)        # 413360 <stderr@GLIBC_2.2.5+0x40d8>
  405813:	48 8b 43 18          	mov    0x18(%rbx),%rax
  405817:	48 89 e7             	mov    %rsp,%rdi
  40581a:	48 8d 74 24 20       	lea    0x20(%rsp),%rsi
  40581f:	c7 44 24 30 01 00 00 	movl   $0x1,0x30(%rsp)
  405826:	00 
  405827:	48 89 44 24 3c       	mov    %rax,0x3c(%rsp)
  40582c:	ff 15 f6 db 00 00    	call   *0xdbf6(%rip)        # 413428 <stderr@GLIBC_2.2.5+0x41a0>
  405832:	ff 74 24 18          	push   0x18(%rsp)
  405836:	ff 74 24 18          	push   0x18(%rsp)
  40583a:	ff 74 24 18          	push   0x18(%rsp)
  40583e:	ff 74 24 18          	push   0x18(%rsp)
  405842:	ff 15 08 db 00 00    	call   *0xdb08(%rip)        # 413350 <stderr@GLIBC_2.2.5+0x40c8>
  405848:	85 c0                	test   %eax,%eax
  40584a:	0f 95 c0             	setne  %al
  40584d:	48 83 c4 70          	add    $0x70,%rsp
  405851:	0f b6 c0             	movzbl %al,%eax
  405854:	5b                   	pop    %rbx
  405855:	f7 d8                	neg    %eax
  405857:	c3                   	ret    
  405858:	0f 1f 84 00 00 00 00 	nopl   0x0(%rax,%rax,1)
  40585f:	00 
  405860:	55                   	push   %rbp
  405861:	be 90 a0 40 00       	mov    $0x40a090,%esi
  405866:	48 89 fd             	mov    %rdi,%rbp
  405869:	e8 32 cc ff ff       	call   4024a0 <dlsym@plt>
  40586e:	48 89 05 e3 db 00 00 	mov    %rax,0xdbe3(%rip)        # 413458 <stderr@GLIBC_2.2.5+0x41d0>
  405875:	48 85 c0             	test   %rax,%rax
  405878:	0f 84 c6 04 00 00    	je     405d44 <dlerror@plt+0x3884>
  40587e:	be b6 a0 40 00       	mov    $0x40a0b6,%esi
  405883:	48 89 ef             	mov    %rbp,%rdi
  405886:	e8 15 cc ff ff       	call   4024a0 <dlsym@plt>
  40588b:	48 89 05 be db 00 00 	mov    %rax,0xdbbe(%rip)        # 413450 <stderr@GLIBC_2.2.5+0x41c8>
  405892:	48 85 c0             	test   %rax,%rax
  405895:	0f 84 cb 04 00 00    	je     405d66 <dlerror@plt+0x38a6>
  40589b:	be c6 a0 40 00       	mov    $0x40a0c6,%esi
  4058a0:	48 89 ef             	mov    %rbp,%rdi
  4058a3:	e8 f8 cb ff ff       	call   4024a0 <dlsym@plt>
  4058a8:	48 89 05 99 db 00 00 	mov    %rax,0xdb99(%rip)        # 413448 <stderr@GLIBC_2.2.5+0x41c0>
  4058af:	48 85 c0             	test   %rax,%rax
  4058b2:	0f 84 9d 04 00 00    	je     405d55 <dlerror@plt+0x3895>
  4058b8:	be dd a0 40 00       	mov    $0x40a0dd,%esi
  4058bd:	48 89 ef             	mov    %rbp,%rdi
  4058c0:	e8 db cb ff ff       	call   4024a0 <dlsym@plt>
  4058c5:	48 89 05 74 db 00 00 	mov    %rax,0xdb74(%rip)        # 413440 <stderr@GLIBC_2.2.5+0x41b8>
  4058cc:	48 85 c0             	test   %rax,%rax
  4058cf:	0f 84 b3 04 00 00    	je     405d88 <dlerror@plt+0x38c8>
  4058d5:	be 07 a1 40 00       	mov    $0x40a107,%esi
  4058da:	48 89 ef             	mov    %rbp,%rdi
  4058dd:	e8 be cb ff ff       	call   4024a0 <dlsym@plt>
  4058e2:	48 89 05 4f db 00 00 	mov    %rax,0xdb4f(%rip)        # 413438 <stderr@GLIBC_2.2.5+0x41b0>
  4058e9:	48 85 c0             	test   %rax,%rax
  4058ec:	0f 84 85 04 00 00    	je     405d77 <dlerror@plt+0x38b7>
  4058f2:	be 1f a1 40 00       	mov    $0x40a11f,%esi
  4058f7:	48 89 ef             	mov    %rbp,%rdi
  4058fa:	e8 a1 cb ff ff       	call   4024a0 <dlsym@plt>
  4058ff:	48 89 05 2a db 00 00 	mov    %rax,0xdb2a(%rip)        # 413430 <stderr@GLIBC_2.2.5+0x41a8>
  405906:	48 85 c0             	test   %rax,%rax
  405909:	0f 84 ac 04 00 00    	je     405dbb <dlerror@plt+0x38fb>
  40590f:	be 30 a1 40 00       	mov    $0x40a130,%esi
  405914:	48 89 ef             	mov    %rbp,%rdi
  405917:	e8 84 cb ff ff       	call   4024a0 <dlsym@plt>
  40591c:	48 89 05 05 db 00 00 	mov    %rax,0xdb05(%rip)        # 413428 <stderr@GLIBC_2.2.5+0x41a0>
  405923:	48 85 c0             	test   %rax,%rax
  405926:	0f 84 7e 04 00 00    	je     405daa <dlerror@plt+0x38ea>
  40592c:	be 41 a1 40 00       	mov    $0x40a141,%esi
  405931:	48 89 ef             	mov    %rbp,%rdi
  405934:	e8 67 cb ff ff       	call   4024a0 <dlsym@plt>
  405939:	48 89 05 e0 da 00 00 	mov    %rax,0xdae0(%rip)        # 413420 <stderr@GLIBC_2.2.5+0x4198>
  405940:	48 85 c0             	test   %rax,%rax
  405943:	0f 84 50 04 00 00    	je     405d99 <dlerror@plt+0x38d9>
  405949:	be 50 a1 40 00       	mov    $0x40a150,%esi
  40594e:	48 89 ef             	mov    %rbp,%rdi
  405951:	e8 4a cb ff ff       	call   4024a0 <dlsym@plt>
  405956:	48 89 05 bb da 00 00 	mov    %rax,0xdabb(%rip)        # 413418 <stderr@GLIBC_2.2.5+0x4190>
  40595d:	48 85 c0             	test   %rax,%rax
  405960:	0f 84 66 04 00 00    	je     405dcc <dlerror@plt+0x390c>
  405966:	be 6c a1 40 00       	mov    $0x40a16c,%esi
  40596b:	48 89 ef             	mov    %rbp,%rdi
  40596e:	e8 2d cb ff ff       	call   4024a0 <dlsym@plt>
  405973:	48 89 05 96 da 00 00 	mov    %rax,0xda96(%rip)        # 413410 <stderr@GLIBC_2.2.5+0x4188>
  40597a:	48 85 c0             	test   %rax,%rax
  40597d:	0f 84 8d 04 00 00    	je     405e10 <dlerror@plt+0x3950>
  405983:	be 7a a1 40 00       	mov    $0x40a17a,%esi
  405988:	48 89 ef             	mov    %rbp,%rdi
  40598b:	e8 10 cb ff ff       	call   4024a0 <dlsym@plt>
  405990:	48 89 05 71 da 00 00 	mov    %rax,0xda71(%rip)        # 413408 <stderr@GLIBC_2.2.5+0x4180>
  405997:	48 85 c0             	test   %rax,%rax
  40599a:	0f 84 5f 04 00 00    	je     405dff <dlerror@plt+0x393f>
  4059a0:	be 92 a1 40 00       	mov    $0x40a192,%esi
  4059a5:	48 89 ef             	mov    %rbp,%rdi
  4059a8:	e8 f3 ca ff ff       	call   4024a0 <dlsym@plt>
  4059ad:	48 89 05 4c da 00 00 	mov    %rax,0xda4c(%rip)        # 413400 <stderr@GLIBC_2.2.5+0x4178>
  4059b4:	48 85 c0             	test   %rax,%rax
  4059b7:	0f 84 31 04 00 00    	je     405dee <dlerror@plt+0x392e>
  4059bd:	be a5 a1 40 00       	mov    $0x40a1a5,%esi
  4059c2:	48 89 ef             	mov    %rbp,%rdi
  4059c5:	e8 d6 ca ff ff       	call   4024a0 <dlsym@plt>
  4059ca:	48 89 05 27 da 00 00 	mov    %rax,0xda27(%rip)        # 4133f8 <stderr@GLIBC_2.2.5+0x4170>
  4059d1:	48 85 c0             	test   %rax,%rax
  4059d4:	0f 84 03 04 00 00    	je     405ddd <dlerror@plt+0x391d>
  4059da:	be c0 a1 40 00       	mov    $0x40a1c0,%esi
  4059df:	48 89 ef             	mov    %rbp,%rdi
  4059e2:	e8 b9 ca ff ff       	call   4024a0 <dlsym@plt>
  4059e7:	48 89 05 02 da 00 00 	mov    %rax,0xda02(%rip)        # 4133f0 <stderr@GLIBC_2.2.5+0x4168>
  4059ee:	48 85 c0             	test   %rax,%rax
  4059f1:	0f 84 5d 04 00 00    	je     405e54 <dlerror@plt+0x3994>
  4059f7:	be ea a1 40 00       	mov    $0x40a1ea,%esi
  4059fc:	48 89 ef             	mov    %rbp,%rdi
  4059ff:	e8 9c ca ff ff       	call   4024a0 <dlsym@plt>
  405a04:	48 89 05 dd d9 00 00 	mov    %rax,0xd9dd(%rip)        # 4133e8 <stderr@GLIBC_2.2.5+0x4160>
  405a0b:	48 85 c0             	test   %rax,%rax
  405a0e:	0f 84 2f 04 00 00    	je     405e43 <dlerror@plt+0x3983>
  405a14:	be 14 a2 40 00       	mov    $0x40a214,%esi
  405a19:	48 89 ef             	mov    %rbp,%rdi
  405a1c:	e8 7f ca ff ff       	call   4024a0 <dlsym@plt>
  405a21:	48 89 05 b8 d9 00 00 	mov    %rax,0xd9b8(%rip)        # 4133e0 <stderr@GLIBC_2.2.5+0x4158>
  405a28:	48 85 c0             	test   %rax,%rax
  405a2b:	0f 84 01 04 00 00    	je     405e32 <dlerror@plt+0x3972>
  405a31:	be 2d a2 40 00       	mov    $0x40a22d,%esi
  405a36:	48 89 ef             	mov    %rbp,%rdi
  405a39:	e8 62 ca ff ff       	call   4024a0 <dlsym@plt>
  405a3e:	48 89 05 93 d9 00 00 	mov    %rax,0xd993(%rip)        # 4133d8 <stderr@GLIBC_2.2.5+0x4150>
  405a45:	48 85 c0             	test   %rax,%rax
  405a48:	0f 84 d3 03 00 00    	je     405e21 <dlerror@plt+0x3961>
  405a4e:	be 3c a2 40 00       	mov    $0x40a23c,%esi
  405a53:	48 89 ef             	mov    %rbp,%rdi
  405a56:	e8 45 ca ff ff       	call   4024a0 <dlsym@plt>
  405a5b:	48 89 05 6e d9 00 00 	mov    %rax,0xd96e(%rip)        # 4133d0 <stderr@GLIBC_2.2.5+0x4148>
  405a62:	48 85 c0             	test   %rax,%rax
  405a65:	0f 84 fa 03 00 00    	je     405e65 <dlerror@plt+0x39a5>
  405a6b:	be 66 a2 40 00       	mov    $0x40a266,%esi
  405a70:	48 89 ef             	mov    %rbp,%rdi
  405a73:	e8 28 ca ff ff       	call   4024a0 <dlsym@plt>
  405a78:	48 89 05 49 d9 00 00 	mov    %rax,0xd949(%rip)        # 4133c8 <stderr@GLIBC_2.2.5+0x4140>
  405a7f:	48 85 c0             	test   %rax,%rax
  405a82:	0f 84 ee 03 00 00    	je     405e76 <dlerror@plt+0x39b6>
  405a88:	be 74 a2 40 00       	mov    $0x40a274,%esi
  405a8d:	48 89 ef             	mov    %rbp,%rdi
  405a90:	e8 0b ca ff ff       	call   4024a0 <dlsym@plt>
  405a95:	48 89 05 24 d9 00 00 	mov    %rax,0xd924(%rip)        # 4133c0 <stderr@GLIBC_2.2.5+0x4138>
  405a9c:	48 85 c0             	test   %rax,%rax
  405a9f:	0f 84 f3 03 00 00    	je     405e98 <dlerror@plt+0x39d8>
  405aa5:	be 84 a2 40 00       	mov    $0x40a284,%esi
  405aaa:	48 89 ef             	mov    %rbp,%rdi
  405aad:	e8 ee c9 ff ff       	call   4024a0 <dlsym@plt>
  405ab2:	48 89 05 ff d8 00 00 	mov    %rax,0xd8ff(%rip)        # 4133b8 <stderr@GLIBC_2.2.5+0x4130>
  405ab9:	48 85 c0             	test   %rax,%rax
  405abc:	0f 84 c5 03 00 00    	je     405e87 <dlerror@plt+0x39c7>
  405ac2:	be 97 a2 40 00       	mov    $0x40a297,%esi
  405ac7:	48 89 ef             	mov    %rbp,%rdi
  405aca:	e8 d1 c9 ff ff       	call   4024a0 <dlsym@plt>
  405acf:	48 89 05 da d8 00 00 	mov    %rax,0xd8da(%rip)        # 4133b0 <stderr@GLIBC_2.2.5+0x4128>
  405ad6:	48 85 c0             	test   %rax,%rax
  405ad9:	0f 84 ec 03 00 00    	je     405ecb <dlerror@plt+0x3a0b>
  405adf:	be af a2 40 00       	mov    $0x40a2af,%esi
  405ae4:	48 89 ef             	mov    %rbp,%rdi
  405ae7:	e8 b4 c9 ff ff       	call   4024a0 <dlsym@plt>
  405aec:	48 89 05 b5 d8 00 00 	mov    %rax,0xd8b5(%rip)        # 4133a8 <stderr@GLIBC_2.2.5+0x4120>
  405af3:	48 85 c0             	test   %rax,%rax
  405af6:	0f 84 be 03 00 00    	je     405eba <dlerror@plt+0x39fa>
  405afc:	be 20 a7 40 00       	mov    $0x40a720,%esi
  405b01:	48 89 ef             	mov    %rbp,%rdi
  405b04:	e8 97 c9 ff ff       	call   4024a0 <dlsym@plt>
  405b09:	48 89 05 90 d8 00 00 	mov    %rax,0xd890(%rip)        # 4133a0 <stderr@GLIBC_2.2.5+0x4118>
  405b10:	48 85 c0             	test   %rax,%rax
  405b13:	0f 84 90 03 00 00    	je     405ea9 <dlerror@plt+0x39e9>
  405b19:	be c5 a2 40 00       	mov    $0x40a2c5,%esi
  405b1e:	48 89 ef             	mov    %rbp,%rdi
  405b21:	e8 7a c9 ff ff       	call   4024a0 <dlsym@plt>
  405b26:	48 89 05 6b d8 00 00 	mov    %rax,0xd86b(%rip)        # 413398 <stderr@GLIBC_2.2.5+0x4110>
  405b2d:	48 85 c0             	test   %rax,%rax
  405b30:	0f 84 a6 03 00 00    	je     405edc <dlerror@plt+0x3a1c>
  405b36:	be d3 a2 40 00       	mov    $0x40a2d3,%esi
  405b3b:	48 89 ef             	mov    %rbp,%rdi
  405b3e:	e8 5d c9 ff ff       	call   4024a0 <dlsym@plt>
  405b43:	48 89 05 46 d8 00 00 	mov    %rax,0xd846(%rip)        # 413390 <stderr@GLIBC_2.2.5+0x4108>
  405b4a:	48 85 c0             	test   %rax,%rax
  405b4d:	0f 84 cd 03 00 00    	je     405f20 <dlerror@plt+0x3a60>
  405b53:	be e4 a2 40 00       	mov    $0x40a2e4,%esi
  405b58:	48 89 ef             	mov    %rbp,%rdi
  405b5b:	e8 40 c9 ff ff       	call   4024a0 <dlsym@plt>
  405b60:	48 89 05 21 d8 00 00 	mov    %rax,0xd821(%rip)        # 413388 <stderr@GLIBC_2.2.5+0x4100>
  405b67:	48 85 c0             	test   %rax,%rax
  405b6a:	0f 84 9f 03 00 00    	je     405f0f <dlerror@plt+0x3a4f>
  405b70:	be fa a2 40 00       	mov    $0x40a2fa,%esi
  405b75:	48 89 ef             	mov    %rbp,%rdi
  405b78:	e8 23 c9 ff ff       	call   4024a0 <dlsym@plt>
  405b7d:	48 89 05 fc d7 00 00 	mov    %rax,0xd7fc(%rip)        # 413380 <stderr@GLIBC_2.2.5+0x40f8>
  405b84:	48 85 c0             	test   %rax,%rax
  405b87:	0f 84 71 03 00 00    	je     405efe <dlerror@plt+0x3a3e>
  405b8d:	be 17 a3 40 00       	mov    $0x40a317,%esi
  405b92:	48 89 ef             	mov    %rbp,%rdi
  405b95:	e8 06 c9 ff ff       	call   4024a0 <dlsym@plt>
  405b9a:	48 89 05 d7 d7 00 00 	mov    %rax,0xd7d7(%rip)        # 413378 <stderr@GLIBC_2.2.5+0x40f0>
  405ba1:	48 85 c0             	test   %rax,%rax
  405ba4:	0f 84 43 03 00 00    	je     405eed <dlerror@plt+0x3a2d>
  405baa:	be 2e a3 40 00       	mov    $0x40a32e,%esi
  405baf:	48 89 ef             	mov    %rbp,%rdi
  405bb2:	e8 e9 c8 ff ff       	call   4024a0 <dlsym@plt>
  405bb7:	48 89 05 b2 d7 00 00 	mov    %rax,0xd7b2(%rip)        # 413370 <stderr@GLIBC_2.2.5+0x40e8>
  405bbe:	48 85 c0             	test   %rax,%rax
  405bc1:	0f 84 9d 03 00 00    	je     405f64 <dlerror@plt+0x3aa4>
  405bc7:	be 45 a3 40 00       	mov    $0x40a345,%esi
  405bcc:	48 89 ef             	mov    %rbp,%rdi
  405bcf:	e8 cc c8 ff ff       	call   4024a0 <dlsym@plt>
  405bd4:	48 89 05 8d d7 00 00 	mov    %rax,0xd78d(%rip)        # 413368 <stderr@GLIBC_2.2.5+0x40e0>
  405bdb:	48 85 c0             	test   %rax,%rax
  405bde:	0f 84 6f 03 00 00    	je     405f53 <dlerror@plt+0x3a93>
  405be4:	be 98 a8 40 00       	mov    $0x40a898,%esi
  405be9:	48 89 ef             	mov    %rbp,%rdi
  405bec:	e8 af c8 ff ff       	call   4024a0 <dlsym@plt>
  405bf1:	48 89 05 68 d7 00 00 	mov    %rax,0xd768(%rip)        # 413360 <stderr@GLIBC_2.2.5+0x40d8>
  405bf8:	48 85 c0             	test   %rax,%rax
  405bfb:	0f 84 41 03 00 00    	je     405f42 <dlerror@plt+0x3a82>
  405c01:	be 52 a3 40 00       	mov    $0x40a352,%esi
  405c06:	48 89 ef             	mov    %rbp,%rdi
  405c09:	e8 92 c8 ff ff       	call   4024a0 <dlsym@plt>
  405c0e:	48 89 05 43 d7 00 00 	mov    %rax,0xd743(%rip)        # 413358 <stderr@GLIBC_2.2.5+0x40d0>
  405c15:	48 85 c0             	test   %rax,%rax
  405c18:	0f 84 13 03 00 00    	je     405f31 <dlerror@plt+0x3a71>
  405c1e:	be 6a a3 40 00       	mov    $0x40a36a,%esi
  405c23:	48 89 ef             	mov    %rbp,%rdi
  405c26:	e8 75 c8 ff ff       	call   4024a0 <dlsym@plt>
  405c2b:	48 89 05 1e d7 00 00 	mov    %rax,0xd71e(%rip)        # 413350 <stderr@GLIBC_2.2.5+0x40c8>
  405c32:	48 85 c0             	test   %rax,%rax
  405c35:	0f 84 4b 03 00 00    	je     405f86 <dlerror@plt+0x3ac6>
  405c3b:	be 7d a3 40 00       	mov    $0x40a37d,%esi
  405c40:	48 89 ef             	mov    %rbp,%rdi
  405c43:	e8 58 c8 ff ff       	call   4024a0 <dlsym@plt>
  405c48:	48 89 05 f9 d6 00 00 	mov    %rax,0xd6f9(%rip)        # 413348 <stderr@GLIBC_2.2.5+0x40c0>
  405c4f:	48 85 c0             	test   %rax,%rax
  405c52:	0f 84 1d 03 00 00    	je     405f75 <dlerror@plt+0x3ab5>
  405c58:	be 8d a3 40 00       	mov    $0x40a38d,%esi
  405c5d:	48 89 ef             	mov    %rbp,%rdi
  405c60:	e8 3b c8 ff ff       	call   4024a0 <dlsym@plt>
  405c65:	48 89 05 d4 d6 00 00 	mov    %rax,0xd6d4(%rip)        # 413340 <stderr@GLIBC_2.2.5+0x40b8>
  405c6c:	48 85 c0             	test   %rax,%rax
  405c6f:	0f 84 33 03 00 00    	je     405fa8 <dlerror@plt+0x3ae8>
  405c75:	be 9d a3 40 00       	mov    $0x40a39d,%esi
  405c7a:	48 89 ef             	mov    %rbp,%rdi
  405c7d:	e8 1e c8 ff ff       	call   4024a0 <dlsym@plt>
  405c82:	48 89 05 af d6 00 00 	mov    %rax,0xd6af(%rip)        # 413338 <stderr@GLIBC_2.2.5+0x40b0>
  405c89:	48 85 c0             	test   %rax,%rax
  405c8c:	0f 84 05 03 00 00    	je     405f97 <dlerror@plt+0x3ad7>
  405c92:	be ae a3 40 00       	mov    $0x40a3ae,%esi
  405c97:	48 89 ef             	mov    %rbp,%rdi
  405c9a:	e8 01 c8 ff ff       	call   4024a0 <dlsym@plt>
  405c9f:	48 89 05 8a d6 00 00 	mov    %rax,0xd68a(%rip)        # 413330 <stderr@GLIBC_2.2.5+0x40a8>
  405ca6:	48 85 c0             	test   %rax,%rax
  405ca9:	0f 84 3d 03 00 00    	je     405fec <dlerror@plt+0x3b2c>
  405caf:	be bf a3 40 00       	mov    $0x40a3bf,%esi
  405cb4:	48 89 ef             	mov    %rbp,%rdi
  405cb7:	e8 e4 c7 ff ff       	call   4024a0 <dlsym@plt>
  405cbc:	48 89 05 65 d6 00 00 	mov    %rax,0xd665(%rip)        # 413328 <stderr@GLIBC_2.2.5+0x40a0>
  405cc3:	48 85 c0             	test   %rax,%rax
  405cc6:	0f 84 0f 03 00 00    	je     405fdb <dlerror@plt+0x3b1b>
  405ccc:	be d9 a3 40 00       	mov    $0x40a3d9,%esi
  405cd1:	48 89 ef             	mov    %rbp,%rdi
  405cd4:	e8 c7 c7 ff ff       	call   4024a0 <dlsym@plt>
  405cd9:	48 89 05 40 d6 00 00 	mov    %rax,0xd640(%rip)        # 413320 <stderr@GLIBC_2.2.5+0x4098>
  405ce0:	48 85 c0             	test   %rax,%rax
  405ce3:	0f 84 e1 02 00 00    	je     405fca <dlerror@plt+0x3b0a>
  405ce9:	be ee a3 40 00       	mov    $0x40a3ee,%esi
  405cee:	48 89 ef             	mov    %rbp,%rdi
  405cf1:	e8 aa c7 ff ff       	call   4024a0 <dlsym@plt>
  405cf6:	48 89 05 1b d6 00 00 	mov    %rax,0xd61b(%rip)        # 413318 <stderr@GLIBC_2.2.5+0x4090>
  405cfd:	48 85 c0             	test   %rax,%rax
  405d00:	0f 84 b3 02 00 00    	je     405fb9 <dlerror@plt+0x3af9>
  405d06:	be 03 a4 40 00       	mov    $0x40a403,%esi
  405d0b:	48 89 ef             	mov    %rbp,%rdi
  405d0e:	e8 8d c7 ff ff       	call   4024a0 <dlsym@plt>
  405d13:	48 89 05 f6 d5 00 00 	mov    %rax,0xd5f6(%rip)        # 413310 <stderr@GLIBC_2.2.5+0x4088>
  405d1a:	48 85 c0             	test   %rax,%rax
  405d1d:	0f 84 da 02 00 00    	je     405ffd <dlerror@plt+0x3b3d>
  405d23:	be 12 a4 40 00       	mov    $0x40a412,%esi
  405d28:	48 89 ef             	mov    %rbp,%rdi
  405d2b:	e8 70 c7 ff ff       	call   4024a0 <dlsym@plt>
  405d30:	48 89 05 d1 d5 00 00 	mov    %rax,0xd5d1(%rip)        # 413308 <stderr@GLIBC_2.2.5+0x4080>
  405d37:	48 85 c0             	test   %rax,%rax
  405d3a:	0f 84 ce 02 00 00    	je     40600e <dlerror@plt+0x3b4e>
  405d40:	31 c0                	xor    %eax,%eax
  405d42:	5d                   	pop    %rbp
  405d43:	c3                   	ret    
  405d44:	bf 9a a0 40 00       	mov    $0x40a09a,%edi
  405d49:	e8 52 d5 ff ff       	call   4032a0 <dlerror@plt+0xde0>
  405d4e:	b8 ff ff ff ff       	mov    $0xffffffff,%eax
  405d53:	5d                   	pop    %rbp
  405d54:	c3                   	ret    
  405d55:	bf 50 a4 40 00       	mov    $0x40a450,%edi
  405d5a:	e8 41 d5 ff ff       	call   4032a0 <dlerror@plt+0xde0>
  405d5f:	b8 ff ff ff ff       	mov    $0xffffffff,%eax
  405d64:	5d                   	pop    %rbp
  405d65:	c3                   	ret    
  405d66:	bf 28 a4 40 00       	mov    $0x40a428,%edi
  405d6b:	e8 30 d5 ff ff       	call   4032a0 <dlerror@plt+0xde0>
  405d70:	b8 ff ff ff ff       	mov    $0xffffffff,%eax
  405d75:	5d                   	pop    %rbp
  405d76:	c3                   	ret    
  405d77:	bf 80 a4 40 00       	mov    $0x40a480,%edi
  405d7c:	e8 1f d5 ff ff       	call   4032a0 <dlerror@plt+0xde0>
  405d81:	b8 ff ff ff ff       	mov    $0xffffffff,%eax
  405d86:	5d                   	pop    %rbp
  405d87:	c3                   	ret    
  405d88:	bf e9 a0 40 00       	mov    $0x40a0e9,%edi
  405d8d:	e8 0e d5 ff ff       	call   4032a0 <dlerror@plt+0xde0>
  405d92:	b8 ff ff ff ff       	mov    $0xffffffff,%eax
  405d97:	5d                   	pop    %rbp
  405d98:	c3                   	ret    
  405d99:	bf 00 a5 40 00       	mov    $0x40a500,%edi
  405d9e:	e8 fd d4 ff ff       	call   4032a0 <dlerror@plt+0xde0>
  405da3:	b8 ff ff ff ff       	mov    $0xffffffff,%eax
  405da8:	5d                   	pop    %rbp
  405da9:	c3                   	ret    
  405daa:	bf d8 a4 40 00       	mov    $0x40a4d8,%edi
  405daf:	e8 ec d4 ff ff       	call   4032a0 <dlerror@plt+0xde0>
  405db4:	b8 ff ff ff ff       	mov    $0xffffffff,%eax
  405db9:	5d                   	pop    %rbp
  405dba:	c3                   	ret    
  405dbb:	bf b0 a4 40 00       	mov    $0x40a4b0,%edi
  405dc0:	e8 db d4 ff ff       	call   4032a0 <dlerror@plt+0xde0>
  405dc5:	b8 ff ff ff ff       	mov    $0xffffffff,%eax
  405dca:	5d                   	pop    %rbp
  405dcb:	c3                   	ret    
  405dcc:	bf 28 a5 40 00       	mov    $0x40a528,%edi
  405dd1:	e8 ca d4 ff ff       	call   4032a0 <dlerror@plt+0xde0>
  405dd6:	b8 ff ff ff ff       	mov    $0xffffffff,%eax
  405ddb:	5d                   	pop    %rbp
  405ddc:	c3                   	ret    
  405ddd:	bf d0 a5 40 00       	mov    $0x40a5d0,%edi
  405de2:	e8 b9 d4 ff ff       	call   4032a0 <dlerror@plt+0xde0>
  405de7:	b8 ff ff ff ff       	mov    $0xffffffff,%eax
  405dec:	5d                   	pop    %rbp
  405ded:	c3                   	ret    
  405dee:	bf a8 a5 40 00       	mov    $0x40a5a8,%edi
  405df3:	e8 a8 d4 ff ff       	call   4032a0 <dlerror@plt+0xde0>
  405df8:	b8 ff ff ff ff       	mov    $0xffffffff,%eax
  405dfd:	5d                   	pop    %rbp
  405dfe:	c3                   	ret    
  405dff:	bf 78 a5 40 00       	mov    $0x40a578,%edi
  405e04:	e8 97 d4 ff ff       	call   4032a0 <dlerror@plt+0xde0>
  405e09:	b8 ff ff ff ff       	mov    $0xffffffff,%eax
  405e0e:	5d                   	pop    %rbp
  405e0f:	c3                   	ret    
  405e10:	bf 58 a5 40 00       	mov    $0x40a558,%edi
  405e15:	e8 86 d4 ff ff       	call   4032a0 <dlerror@plt+0xde0>
  405e1a:	b8 ff ff ff ff       	mov    $0xffffffff,%eax
  405e1f:	5d                   	pop    %rbp
  405e20:	c3                   	ret    
  405e21:	bf 30 a6 40 00       	mov    $0x40a630,%edi
  405e26:	e8 75 d4 ff ff       	call   4032a0 <dlerror@plt+0xde0>
  405e2b:	b8 ff ff ff ff       	mov    $0xffffffff,%eax
  405e30:	5d                   	pop    %rbp
  405e31:	c3                   	ret    
  405e32:	bf 00 a6 40 00       	mov    $0x40a600,%edi
  405e37:	e8 64 d4 ff ff       	call   4032a0 <dlerror@plt+0xde0>
  405e3c:	b8 ff ff ff ff       	mov    $0xffffffff,%eax
  405e41:	5d                   	pop    %rbp
  405e42:	c3                   	ret    
  405e43:	bf f6 a1 40 00       	mov    $0x40a1f6,%edi
  405e48:	e8 53 d4 ff ff       	call   4032a0 <dlerror@plt+0xde0>
  405e4d:	b8 ff ff ff ff       	mov    $0xffffffff,%eax
  405e52:	5d                   	pop    %rbp
  405e53:	c3                   	ret    
  405e54:	bf cc a1 40 00       	mov    $0x40a1cc,%edi
  405e59:	e8 42 d4 ff ff       	call   4032a0 <dlerror@plt+0xde0>
  405e5e:	b8 ff ff ff ff       	mov    $0xffffffff,%eax
  405e63:	5d                   	pop    %rbp
  405e64:	c3                   	ret    
  405e65:	bf 48 a2 40 00       	mov    $0x40a248,%edi
  405e6a:	e8 31 d4 ff ff       	call   4032a0 <dlerror@plt+0xde0>
  405e6f:	b8 ff ff ff ff       	mov    $0xffffffff,%eax
  405e74:	5d                   	pop    %rbp
  405e75:	c3                   	ret    
  405e76:	bf 58 a6 40 00       	mov    $0x40a658,%edi
  405e7b:	e8 20 d4 ff ff       	call   4032a0 <dlerror@plt+0xde0>
  405e80:	b8 ff ff ff ff       	mov    $0xffffffff,%eax
  405e85:	5d                   	pop    %rbp
  405e86:	c3                   	ret    
  405e87:	bf a0 a6 40 00       	mov    $0x40a6a0,%edi
  405e8c:	e8 0f d4 ff ff       	call   4032a0 <dlerror@plt+0xde0>
  405e91:	b8 ff ff ff ff       	mov    $0xffffffff,%eax
  405e96:	5d                   	pop    %rbp
  405e97:	c3                   	ret    
  405e98:	bf 78 a6 40 00       	mov    $0x40a678,%edi
  405e9d:	e8 fe d3 ff ff       	call   4032a0 <dlerror@plt+0xde0>
  405ea2:	b8 ff ff ff ff       	mov    $0xffffffff,%eax
  405ea7:	5d                   	pop    %rbp
  405ea8:	c3                   	ret    
  405ea9:	bf 40 a7 40 00       	mov    $0x40a740,%edi
  405eae:	e8 ed d3 ff ff       	call   4032a0 <dlerror@plt+0xde0>
  405eb3:	b8 ff ff ff ff       	mov    $0xffffffff,%eax
  405eb8:	5d                   	pop    %rbp
  405eb9:	c3                   	ret    
  405eba:	bf f8 a6 40 00       	mov    $0x40a6f8,%edi
  405ebf:	e8 dc d3 ff ff       	call   4032a0 <dlerror@plt+0xde0>
  405ec4:	b8 ff ff ff ff       	mov    $0xffffffff,%eax
  405ec9:	5d                   	pop    %rbp
  405eca:	c3                   	ret    
  405ecb:	bf c8 a6 40 00       	mov    $0x40a6c8,%edi
  405ed0:	e8 cb d3 ff ff       	call   4032a0 <dlerror@plt+0xde0>
  405ed5:	b8 ff ff ff ff       	mov    $0xffffffff,%eax
  405eda:	5d                   	pop    %rbp
  405edb:	c3                   	ret    
  405edc:	bf 78 a7 40 00       	mov    $0x40a778,%edi
  405ee1:	e8 ba d3 ff ff       	call   4032a0 <dlerror@plt+0xde0>
  405ee6:	b8 ff ff ff ff       	mov    $0xffffffff,%eax
  405eeb:	5d                   	pop    %rbp
  405eec:	c3                   	ret    
  405eed:	bf 18 a8 40 00       	mov    $0x40a818,%edi
  405ef2:	e8 a9 d3 ff ff       	call   4032a0 <dlerror@plt+0xde0>
  405ef7:	b8 ff ff ff ff       	mov    $0xffffffff,%eax
  405efc:	5d                   	pop    %rbp
  405efd:	c3                   	ret    
  405efe:	bf e8 a7 40 00       	mov    $0x40a7e8,%edi
  405f03:	e8 98 d3 ff ff       	call   4032a0 <dlerror@plt+0xde0>
  405f08:	b8 ff ff ff ff       	mov    $0xffffffff,%eax
  405f0d:	5d                   	pop    %rbp
  405f0e:	c3                   	ret    
  405f0f:	bf c0 a7 40 00       	mov    $0x40a7c0,%edi
  405f14:	e8 87 d3 ff ff       	call   4032a0 <dlerror@plt+0xde0>
  405f19:	b8 ff ff ff ff       	mov    $0xffffffff,%eax
  405f1e:	5d                   	pop    %rbp
  405f1f:	c3                   	ret    
  405f20:	bf 98 a7 40 00       	mov    $0x40a798,%edi
  405f25:	e8 76 d3 ff ff       	call   4032a0 <dlerror@plt+0xde0>
  405f2a:	b8 ff ff ff ff       	mov    $0xffffffff,%eax
  405f2f:	5d                   	pop    %rbp
  405f30:	c3                   	ret    
  405f31:	bf f0 a8 40 00       	mov    $0x40a8f0,%edi
  405f36:	e8 65 d3 ff ff       	call   4032a0 <dlerror@plt+0xde0>
  405f3b:	b8 ff ff ff ff       	mov    $0xffffffff,%eax
  405f40:	5d                   	pop    %rbp
  405f41:	c3                   	ret    
  405f42:	bf b8 a8 40 00       	mov    $0x40a8b8,%edi
  405f47:	e8 54 d3 ff ff       	call   4032a0 <dlerror@plt+0xde0>
  405f4c:	b8 ff ff ff ff       	mov    $0xffffffff,%eax
  405f51:	5d                   	pop    %rbp
  405f52:	c3                   	ret    
  405f53:	bf 78 a8 40 00       	mov    $0x40a878,%edi
  405f58:	e8 43 d3 ff ff       	call   4032a0 <dlerror@plt+0xde0>
  405f5d:	b8 ff ff ff ff       	mov    $0xffffffff,%eax
  405f62:	5d                   	pop    %rbp
  405f63:	c3                   	ret    
  405f64:	bf 48 a8 40 00       	mov    $0x40a848,%edi
  405f69:	e8 32 d3 ff ff       	call   4032a0 <dlerror@plt+0xde0>
  405f6e:	b8 ff ff ff ff       	mov    $0xffffffff,%eax
  405f73:	5d                   	pop    %rbp
  405f74:	c3                   	ret    
  405f75:	bf 48 a9 40 00       	mov    $0x40a948,%edi
  405f7a:	e8 21 d3 ff ff       	call   4032a0 <dlerror@plt+0xde0>
  405f7f:	b8 ff ff ff ff       	mov    $0xffffffff,%eax
  405f84:	5d                   	pop    %rbp
  405f85:	c3                   	ret    
  405f86:	bf 20 a9 40 00       	mov    $0x40a920,%edi
  405f8b:	e8 10 d3 ff ff       	call   4032a0 <dlerror@plt+0xde0>
  405f90:	b8 ff ff ff ff       	mov    $0xffffffff,%eax
  405f95:	5d                   	pop    %rbp
  405f96:	c3                   	ret    
  405f97:	bf 98 a9 40 00       	mov    $0x40a998,%edi
  405f9c:	e8 ff d2 ff ff       	call   4032a0 <dlerror@plt+0xde0>
  405fa1:	b8 ff ff ff ff       	mov    $0xffffffff,%eax
  405fa6:	5d                   	pop    %rbp
  405fa7:	c3                   	ret    
  405fa8:	bf 70 a9 40 00       	mov    $0x40a970,%edi
  405fad:	e8 ee d2 ff ff       	call   4032a0 <dlerror@plt+0xde0>
  405fb2:	b8 ff ff ff ff       	mov    $0xffffffff,%eax
  405fb7:	5d                   	pop    %rbp
  405fb8:	c3                   	ret    
  405fb9:	bf 40 aa 40 00       	mov    $0x40aa40,%edi
  405fbe:	e8 dd d2 ff ff       	call   4032a0 <dlerror@plt+0xde0>
  405fc3:	b8 ff ff ff ff       	mov    $0xffffffff,%eax
  405fc8:	5d                   	pop    %rbp
  405fc9:	c3                   	ret    
  405fca:	bf 18 aa 40 00       	mov    $0x40aa18,%edi
  405fcf:	e8 cc d2 ff ff       	call   4032a0 <dlerror@plt+0xde0>
  405fd4:	b8 ff ff ff ff       	mov    $0xffffffff,%eax
  405fd9:	5d                   	pop    %rbp
  405fda:	c3                   	ret    
  405fdb:	bf e8 a9 40 00       	mov    $0x40a9e8,%edi
  405fe0:	e8 bb d2 ff ff       	call   4032a0 <dlerror@plt+0xde0>
  405fe5:	b8 ff ff ff ff       	mov    $0xffffffff,%eax
  405fea:	5d                   	pop    %rbp
  405feb:	c3                   	ret    
  405fec:	bf c0 a9 40 00       	mov    $0x40a9c0,%edi
  405ff1:	e8 aa d2 ff ff       	call   4032a0 <dlerror@plt+0xde0>
  405ff6:	b8 ff ff ff ff       	mov    $0xffffffff,%eax
  405ffb:	5d                   	pop    %rbp
  405ffc:	c3                   	ret    
  405ffd:	bf 68 aa 40 00       	mov    $0x40aa68,%edi
  406002:	e8 99 d2 ff ff       	call   4032a0 <dlerror@plt+0xde0>
  406007:	b8 ff ff ff ff       	mov    $0xffffffff,%eax
  40600c:	5d                   	pop    %rbp
  40600d:	c3                   	ret    
  40600e:	bf 90 aa 40 00       	mov    $0x40aa90,%edi
  406013:	e8 88 d2 ff ff       	call   4032a0 <dlerror@plt+0xde0>
  406018:	b8 ff ff ff ff       	mov    $0xffffffff,%eax
  40601d:	5d                   	pop    %rbp
  40601e:	c3                   	ret    
  40601f:	90                   	nop
  406020:	41 54                	push   %r12
  406022:	ba 66 bb 40 00       	mov    $0x40bb66,%edx
  406027:	be 40 00 00 00       	mov    $0x40,%esi
  40602c:	31 c0                	xor    %eax,%eax
  40602e:	55                   	push   %rbp
  40602f:	53                   	push   %rbx
  406030:	48 89 fb             	mov    %rdi,%rbx
  406033:	48 81 ec 40 10 00 00 	sub    $0x1040,%rsp
  40603a:	48 8b af 20 20 00 00 	mov    0x2020(%rdi),%rbp
  406041:	48 89 e7             	mov    %rsp,%rdi
  406044:	4c 8d a5 2c 10 00 00 	lea    0x102c(%rbp),%r12
  40604b:	4c 89 e1             	mov    %r12,%rcx
  40604e:	e8 6d c1 ff ff       	call   4021c0 <snprintf@plt>
  406053:	48 98                	cltq   
  406055:	48 83 f8 3f          	cmp    $0x3f,%rax
  406059:	77 55                	ja     4060b0 <dlerror@plt+0x3bf0>
  40605b:	4c 8d a3 32 20 00 00 	lea    0x2032(%rbx),%r12
  406062:	48 89 e2             	mov    %rsp,%rdx
  406065:	48 8d 7c 24 40       	lea    0x40(%rsp),%rdi
  40606a:	4c 89 e6             	mov    %r12,%rsi
  40606d:	e8 3e e8 ff ff       	call   4048b0 <dlerror@plt+0x23f0>
  406072:	48 85 c0             	test   %rax,%rax
  406075:	74 57                	je     4060ce <dlerror@plt+0x3c0e>
  406077:	48 8d 7c 24 40       	lea    0x40(%rsp),%rdi
  40607c:	e8 0f 20 00 00       	call   408090 <dlerror@plt+0x5bd0>
  406081:	48 89 83 38 30 00 00 	mov    %rax,0x3038(%rbx)
  406088:	48 89 c7             	mov    %rax,%rdi
  40608b:	48 85 c0             	test   %rax,%rax
  40608e:	74 57                	je     4060e7 <dlerror@plt+0x3c27>
  406090:	8b b5 28 10 00 00    	mov    0x1028(%rbp),%esi
  406096:	e8 c5 f7 ff ff       	call   405860 <dlerror@plt+0x33a0>
  40609b:	48 81 c4 40 10 00 00 	add    $0x1040,%rsp
  4060a2:	5b                   	pop    %rbx
  4060a3:	5d                   	pop    %rbp
  4060a4:	41 5c                	pop    %r12
  4060a6:	c3                   	ret    
  4060a7:	66 0f 1f 84 00 00 00 	nopw   0x0(%rax,%rax,1)
  4060ae:	00 00 
  4060b0:	48 89 c6             	mov    %rax,%rsi
  4060b3:	b9 40 00 00 00       	mov    $0x40,%ecx
  4060b8:	31 c0                	xor    %eax,%eax
  4060ba:	4c 89 e2             	mov    %r12,%rdx
  4060bd:	bf 10 ab 40 00       	mov    $0x40ab10,%edi
  4060c2:	e8 d9 d1 ff ff       	call   4032a0 <dlerror@plt+0xde0>
  4060c7:	b8 ff ff ff ff       	mov    $0xffffffff,%eax
  4060cc:	eb cd                	jmp    40609b <dlerror@plt+0x3bdb>
  4060ce:	ba 00 10 00 00       	mov    $0x1000,%edx
  4060d3:	4c 89 e6             	mov    %r12,%rsi
  4060d6:	bf 68 ab 40 00       	mov    $0x40ab68,%edi
  4060db:	e8 c0 d1 ff ff       	call   4032a0 <dlerror@plt+0xde0>
  4060e0:	b8 ff ff ff ff       	mov    $0xffffffff,%eax
  4060e5:	eb b4                	jmp    40609b <dlerror@plt+0x3bdb>
  4060e7:	e8 d4 c3 ff ff       	call   4024c0 <dlerror@plt>
  4060ec:	48 8d 74 24 40       	lea    0x40(%rsp),%rsi
  4060f1:	bf b8 ab 40 00       	mov    $0x40abb8,%edi
  4060f6:	48 89 c2             	mov    %rax,%rdx
  4060f9:	31 c0                	xor    %eax,%eax
  4060fb:	e8 a0 d1 ff ff       	call   4032a0 <dlerror@plt+0xde0>
  406100:	b8 ff ff ff ff       	mov    $0xffffffff,%eax
  406105:	eb 94                	jmp    40609b <dlerror@plt+0x3bdb>
  406107:	66 0f 1f 84 00 00 00 	nopw   0x0(%rax,%rax,1)
  40610e:	00 00 
  406110:	41 55                	push   %r13
  406112:	41 54                	push   %r12
  406114:	49 89 fc             	mov    %rdi,%r12
  406117:	55                   	push   %rbp
  406118:	48 83 ec 20          	sub    $0x20,%rsp
  40611c:	e8 df e9 ff ff       	call   404b00 <dlerror@plt+0x2640>
  406121:	49 89 c5             	mov    %rax,%r13
  406124:	48 85 c0             	test   %rax,%rax
  406127:	0f 84 9d 01 00 00    	je     4062ca <dlerror@plt+0x3e0a>
  40612d:	48 89 c7             	mov    %rax,%rdi
  406130:	e8 cb f6 ff ff       	call   405800 <dlerror@plt+0x3340>
  406135:	85 c0                	test   %eax,%eax
  406137:	0f 88 1b 01 00 00    	js     406258 <dlerror@plt+0x3d98>
  40613d:	4c 89 e7             	mov    %r12,%rdi
  406140:	e8 3b ed ff ff       	call   404e80 <dlerror@plt+0x29c0>
  406145:	48 89 c5             	mov    %rax,%rbp
  406148:	48 85 c0             	test   %rax,%rax
  40614b:	0f 84 a9 01 00 00    	je     4062fa <dlerror@plt+0x3e3a>
  406151:	48 89 c7             	mov    %rax,%rdi
  406154:	ff 15 be d2 00 00    	call   *0xd2be(%rip)        # 413418 <stderr@GLIBC_2.2.5+0x4190>
  40615a:	4c 89 e6             	mov    %r12,%rsi
  40615d:	48 89 ef             	mov    %rbp,%rdi
  406160:	e8 db ed ff ff       	call   404f40 <dlerror@plt+0x2a80>
  406165:	85 c0                	test   %eax,%eax
  406167:	0f 88 01 01 00 00    	js     40626e <dlerror@plt+0x3dae>
  40616d:	4c 89 e6             	mov    %r12,%rsi
  406170:	48 89 ef             	mov    %rbp,%rdi
  406173:	e8 98 ee ff ff       	call   405010 <dlerror@plt+0x2b50>
  406178:	85 c0                	test   %eax,%eax
  40617a:	0f 88 05 01 00 00    	js     406285 <dlerror@plt+0x3dc5>
  406180:	4c 89 e6             	mov    %r12,%rsi
  406183:	48 89 ef             	mov    %rbp,%rdi
  406186:	e8 65 ef ff ff       	call   4050f0 <dlerror@plt+0x2c30>
  40618b:	85 c0                	test   %eax,%eax
  40618d:	0f 88 09 01 00 00    	js     40629c <dlerror@plt+0x3ddc>
  406193:	4c 89 e6             	mov    %r12,%rsi
  406196:	48 89 ef             	mov    %rbp,%rdi
  406199:	e8 b2 f1 ff ff       	call   405350 <dlerror@plt+0x2e90>
  40619e:	85 c0                	test   %eax,%eax
  4061a0:	0f 88 0d 01 00 00    	js     4062b3 <dlerror@plt+0x3df3>
  4061a6:	4c 89 ea             	mov    %r13,%rdx
  4061a9:	4c 89 e6             	mov    %r12,%rsi
  4061ac:	48 89 ef             	mov    %rbp,%rdi
  4061af:	e8 4c f3 ff ff       	call   405500 <dlerror@plt+0x3040>
  4061b4:	85 c0                	test   %eax,%eax
  4061b6:	0f 88 27 01 00 00    	js     4062e3 <dlerror@plt+0x3e23>
  4061bc:	41 8b 45 04          	mov    0x4(%r13),%eax
  4061c0:	85 c0                	test   %eax,%eax
  4061c2:	75 4c                	jne    406210 <dlerror@plt+0x3d50>
  4061c4:	48 89 e7             	mov    %rsp,%rdi
  4061c7:	48 89 ee             	mov    %rbp,%rsi
  4061ca:	ff 15 68 d2 00 00    	call   *0xd268(%rip)        # 413438 <stderr@GLIBC_2.2.5+0x41b0>
  4061d0:	ff 74 24 18          	push   0x18(%rsp)
  4061d4:	ff 74 24 18          	push   0x18(%rsp)
  4061d8:	ff 74 24 18          	push   0x18(%rsp)
  4061dc:	ff 74 24 18          	push   0x18(%rsp)
  4061e0:	ff 15 6a d1 00 00    	call   *0xd16a(%rip)        # 413350 <stderr@GLIBC_2.2.5+0x40c8>
  4061e6:	41 89 c4             	mov    %eax,%r12d
  4061e9:	48 83 c4 20          	add    $0x20,%rsp
  4061ed:	85 c0                	test   %eax,%eax
  4061ef:	75 39                	jne    40622a <dlerror@plt+0x3d6a>
  4061f1:	48 89 ef             	mov    %rbp,%rdi
  4061f4:	e8 17 ed ff ff       	call   404f10 <dlerror@plt+0x2a50>
  4061f9:	4c 89 ef             	mov    %r13,%rdi
  4061fc:	e8 6f e8 ff ff       	call   404a70 <dlerror@plt+0x25b0>
  406201:	48 83 c4 20          	add    $0x20,%rsp
  406205:	44 89 e0             	mov    %r12d,%eax
  406208:	5d                   	pop    %rbp
  406209:	41 5c                	pop    %r12
  40620b:	41 5d                	pop    %r13
  40620d:	c3                   	ret    
  40620e:	66 90                	xchg   %ax,%ax
  406210:	48 8b 3d 69 90 00 00 	mov    0x9069(%rip),%rdi        # 40f280 <stdout@GLIBC_2.2.5>
  406217:	e8 44 c1 ff ff       	call   402360 <fflush@plt>
  40621c:	48 8b 3d 65 90 00 00 	mov    0x9065(%rip),%rdi        # 40f288 <stderr@GLIBC_2.2.5>
  406223:	e8 38 c1 ff ff       	call   402360 <fflush@plt>
  406228:	eb 9a                	jmp    4061c4 <dlerror@plt+0x3d04>
  40622a:	bf 10 ad 40 00       	mov    $0x40ad10,%edi
  40622f:	31 c0                	xor    %eax,%eax
  406231:	41 bc ff ff ff ff    	mov    $0xffffffff,%r12d
  406237:	e8 64 d0 ff ff       	call   4032a0 <dlerror@plt+0xde0>
  40623c:	ff 74 24 18          	push   0x18(%rsp)
  406240:	ff 74 24 18          	push   0x18(%rsp)
  406244:	ff 74 24 18          	push   0x18(%rsp)
  406248:	ff 74 24 18          	push   0x18(%rsp)
  40624c:	ff 15 f6 d1 00 00    	call   *0xd1f6(%rip)        # 413448 <stderr@GLIBC_2.2.5+0x41c0>
  406252:	48 83 c4 20          	add    $0x20,%rsp
  406256:	eb 99                	jmp    4061f1 <dlerror@plt+0x3d31>
  406258:	bf 18 ac 40 00       	mov    $0x40ac18,%edi
  40625d:	31 c0                	xor    %eax,%eax
  40625f:	41 bc ff ff ff ff    	mov    $0xffffffff,%r12d
  406265:	31 ed                	xor    %ebp,%ebp
  406267:	e8 34 d0 ff ff       	call   4032a0 <dlerror@plt+0xde0>
  40626c:	eb 83                	jmp    4061f1 <dlerror@plt+0x3d31>
  40626e:	bf b4 aa 40 00       	mov    $0x40aab4,%edi
  406273:	31 c0                	xor    %eax,%eax
  406275:	41 bc ff ff ff ff    	mov    $0xffffffff,%r12d
  40627b:	e8 20 d0 ff ff       	call   4032a0 <dlerror@plt+0xde0>
  406280:	e9 6c ff ff ff       	jmp    4061f1 <dlerror@plt+0x3d31>
  406285:	bf 98 ac 40 00       	mov    $0x40ac98,%edi
  40628a:	31 c0                	xor    %eax,%eax
  40628c:	41 bc ff ff ff ff    	mov    $0xffffffff,%r12d
  406292:	e8 09 d0 ff ff       	call   4032a0 <dlerror@plt+0xde0>
  406297:	e9 55 ff ff ff       	jmp    4061f1 <dlerror@plt+0x3d31>
  40629c:	bf c0 ac 40 00       	mov    $0x40acc0,%edi
  4062a1:	31 c0                	xor    %eax,%eax
  4062a3:	41 bc ff ff ff ff    	mov    $0xffffffff,%r12d
  4062a9:	e8 f2 cf ff ff       	call   4032a0 <dlerror@plt+0xde0>
  4062ae:	e9 3e ff ff ff       	jmp    4061f1 <dlerror@plt+0x3d31>
  4062b3:	bf d1 aa 40 00       	mov    $0x40aad1,%edi
  4062b8:	31 c0                	xor    %eax,%eax
  4062ba:	41 bc ff ff ff ff    	mov    $0xffffffff,%r12d
  4062c0:	e8 db cf ff ff       	call   4032a0 <dlerror@plt+0xde0>
  4062c5:	e9 27 ff ff ff       	jmp    4061f1 <dlerror@plt+0x3d31>
  4062ca:	bf f0 ab 40 00       	mov    $0x40abf0,%edi
  4062cf:	31 c0                	xor    %eax,%eax
  4062d1:	31 ed                	xor    %ebp,%ebp
  4062d3:	41 bc ff ff ff ff    	mov    $0xffffffff,%r12d
  4062d9:	e8 c2 cf ff ff       	call   4032a0 <dlerror@plt+0xde0>
  4062de:	e9 0e ff ff ff       	jmp    4061f1 <dlerror@plt+0x3d31>
  4062e3:	bf e8 ac 40 00       	mov    $0x40ace8,%edi
  4062e8:	31 c0                	xor    %eax,%eax
  4062ea:	41 bc ff ff ff ff    	mov    $0xffffffff,%r12d
  4062f0:	e8 ab cf ff ff       	call   4032a0 <dlerror@plt+0xde0>
  4062f5:	e9 f7 fe ff ff       	jmp    4061f1 <dlerror@plt+0x3d31>
  4062fa:	bf 50 ac 40 00       	mov    $0x40ac50,%edi
  4062ff:	31 c0                	xor    %eax,%eax
  406301:	41 bc ff ff ff ff    	mov    $0xffffffff,%r12d
  406307:	e8 94 cf ff ff       	call   4032a0 <dlerror@plt+0xde0>
  40630c:	e9 e0 fe ff ff       	jmp    4061f1 <dlerror@plt+0x3d31>
  406311:	66 66 2e 0f 1f 84 00 	data16 cs nopw 0x0(%rax,%rax,1)
  406318:	00 00 00 00 
  40631c:	0f 1f 40 00          	nopl   0x0(%rax)
  406320:	41 55                	push   %r13
  406322:	48 81 c7 32 20 00 00 	add    $0x2032,%rdi
  406329:	41 54                	push   %r12
  40632b:	55                   	push   %rbp
  40632c:	53                   	push   %rbx
  40632d:	48 83 ec 08          	sub    $0x8,%rsp
  406331:	48 8b 5f ee          	mov    -0x12(%rdi),%rbx
  406335:	ff 15 ed cf 00 00    	call   *0xcfed(%rip)        # 413328 <stderr@GLIBC_2.2.5+0x40a0>
  40633b:	48 85 c0             	test   %rax,%rax
  40633e:	0f 84 09 01 00 00    	je     40644d <dlerror@plt+0x3f8d>
  406344:	48 89 c6             	mov    %rax,%rsi
  406347:	bf ea aa 40 00       	mov    $0x40aaea,%edi
  40634c:	ff 15 ee cf 00 00    	call   *0xcfee(%rip)        # 413340 <stderr@GLIBC_2.2.5+0x40b8>
  406352:	48 8b ab 08 10 00 00 	mov    0x1008(%rbx),%rbp
  406359:	48 3b ab 10 10 00 00 	cmp    0x1010(%rbx),%rbp
  406360:	72 55                	jb     4063b7 <dlerror@plt+0x3ef7>
  406362:	e9 d9 00 00 00       	jmp    406440 <dlerror@plt+0x3f80>
  406367:	66 0f 1f 84 00 00 00 	nopw   0x0(%rax,%rax,1)
  40636e:	00 00 
  406370:	4c 89 ee             	mov    %r13,%rsi
  406373:	4c 89 e7             	mov    %r12,%rdi
  406376:	ff 15 34 d0 00 00    	call   *0xd034(%rip)        # 4133b0 <stderr@GLIBC_2.2.5+0x4128>
  40637c:	48 85 c0             	test   %rax,%rax
  40637f:	0f 84 ab 00 00 00    	je     406430 <dlerror@plt+0x3f70>
  406385:	ff 15 4d d0 00 00    	call   *0xd04d(%rip)        # 4133d8 <stderr@GLIBC_2.2.5+0x4150>
  40638b:	48 85 c0             	test   %rax,%rax
  40638e:	74 0c                	je     40639c <dlerror@plt+0x3edc>
  406390:	ff 15 3a d0 00 00    	call   *0xd03a(%rip)        # 4133d0 <stderr@GLIBC_2.2.5+0x4148>
  406396:	ff 15 54 d0 00 00    	call   *0xd054(%rip)        # 4133f0 <stderr@GLIBC_2.2.5+0x4168>
  40639c:	48 89 ee             	mov    %rbp,%rsi
  40639f:	48 89 df             	mov    %rbx,%rdi
  4063a2:	e8 79 c5 ff ff       	call   402920 <dlerror@plt+0x460>
  4063a7:	48 89 c5             	mov    %rax,%rbp
  4063aa:	48 39 83 10 10 00 00 	cmp    %rax,0x1010(%rbx)
  4063b1:	0f 86 89 00 00 00    	jbe    406440 <dlerror@plt+0x3f80>
  4063b7:	0f b6 45 11          	movzbl 0x11(%rbp),%eax
  4063bb:	83 e0 df             	and    $0xffffffdf,%eax
  4063be:	3c 4d                	cmp    $0x4d,%al
  4063c0:	75 da                	jne    40639c <dlerror@plt+0x3edc>
  4063c2:	48 89 ee             	mov    %rbp,%rsi
  4063c5:	48 89 df             	mov    %rbx,%rdi
  4063c8:	e8 63 c5 ff ff       	call   402930 <dlerror@plt+0x470>
  4063cd:	8b 75 0c             	mov    0xc(%rbp),%esi
  4063d0:	49 89 c4             	mov    %rax,%r12
  4063d3:	48 89 c7             	mov    %rax,%rdi
  4063d6:	ff 15 c4 cf 00 00    	call   *0xcfc4(%rip)        # 4133a0 <stderr@GLIBC_2.2.5+0x4118>
  4063dc:	4c 89 e7             	mov    %r12,%rdi
  4063df:	4c 8d 65 12          	lea    0x12(%rbp),%r12
  4063e3:	49 89 c5             	mov    %rax,%r13
  4063e6:	e8 75 bc ff ff       	call   402060 <free@plt>
  4063eb:	4d 85 ed             	test   %r13,%r13
  4063ee:	75 80                	jne    406370 <dlerror@plt+0x3eb0>
  4063f0:	4c 89 e6             	mov    %r12,%rsi
  4063f3:	bf 68 ad 40 00       	mov    $0x40ad68,%edi
  4063f8:	31 c0                	xor    %eax,%eax
  4063fa:	e8 a1 ce ff ff       	call   4032a0 <dlerror@plt+0xde0>
  4063ff:	ff 15 d3 cf 00 00    	call   *0xcfd3(%rip)        # 4133d8 <stderr@GLIBC_2.2.5+0x4150>
  406405:	48 85 c0             	test   %rax,%rax
  406408:	74 16                	je     406420 <dlerror@plt+0x3f60>
  40640a:	ff 15 c0 cf 00 00    	call   *0xcfc0(%rip)        # 4133d0 <stderr@GLIBC_2.2.5+0x4148>
  406410:	ff 15 da cf 00 00    	call   *0xcfda(%rip)        # 4133f0 <stderr@GLIBC_2.2.5+0x4168>
  406416:	66 2e 0f 1f 84 00 00 	cs nopw 0x0(%rax,%rax,1)
  40641d:	00 00 00 
  406420:	b8 ff ff ff ff       	mov    $0xffffffff,%eax
  406425:	48 83 c4 08          	add    $0x8,%rsp
  406429:	5b                   	pop    %rbx
  40642a:	5d                   	pop    %rbp
  40642b:	41 5c                	pop    %r12
  40642d:	41 5d                	pop    %r13
  40642f:	c3                   	ret    
  406430:	4c 89 e6             	mov    %r12,%rsi
  406433:	bf 98 ad 40 00       	mov    $0x40ad98,%edi
  406438:	e8 63 ce ff ff       	call   4032a0 <dlerror@plt+0xde0>
  40643d:	eb c0                	jmp    4063ff <dlerror@plt+0x3f3f>
  40643f:	90                   	nop
  406440:	48 83 c4 08          	add    $0x8,%rsp
  406444:	31 c0                	xor    %eax,%eax
  406446:	5b                   	pop    %rbx
  406447:	5d                   	pop    %rbp
  406448:	41 5c                	pop    %r12
  40644a:	41 5d                	pop    %r13
  40644c:	c3                   	ret    
  40644d:	31 c0                	xor    %eax,%eax
  40644f:	bf 40 ad 40 00       	mov    $0x40ad40,%edi
  406454:	e8 47 ce ff ff       	call   4032a0 <dlerror@plt+0xde0>
  406459:	b8 ff ff ff ff       	mov    $0xffffffff,%eax
  40645e:	eb c5                	jmp    406425 <dlerror@plt+0x3f65>
  406460:	41 54                	push   %r12
  406462:	55                   	push   %rbp
  406463:	48 89 fd             	mov    %rdi,%rbp
  406466:	53                   	push   %rbx
  406467:	48 83 ec 10          	sub    $0x10,%rsp
  40646b:	48 8b 9f 20 20 00 00 	mov    0x2020(%rdi),%rbx
  406472:	48 8b b3 08 10 00 00 	mov    0x1008(%rbx),%rsi
  406479:	48 8b 83 10 10 00 00 	mov    0x1010(%rbx),%rax
  406480:	48 39 c6             	cmp    %rax,%rsi
  406483:	72 26                	jb     4064ab <dlerror@plt+0x3feb>
  406485:	e9 a6 00 00 00       	jmp    406530 <dlerror@plt+0x4070>
  40648a:	66 0f 1f 44 00 00    	nopw   0x0(%rax,%rax,1)
  406490:	48 89 df             	mov    %rbx,%rdi
  406493:	e8 88 c4 ff ff       	call   402920 <dlerror@plt+0x460>
  406498:	48 89 c6             	mov    %rax,%rsi
  40649b:	48 8b 83 10 10 00 00 	mov    0x1010(%rbx),%rax
  4064a2:	48 39 f0             	cmp    %rsi,%rax
  4064a5:	0f 86 85 00 00 00    	jbe    406530 <dlerror@plt+0x4070>
  4064ab:	80 7e 11 7a          	cmpb   $0x7a,0x11(%rsi)
  4064af:	75 df                	jne    406490 <dlerror@plt+0x3fd0>
  4064b1:	48 39 c6             	cmp    %rax,%rsi
  4064b4:	48 89 74 24 08       	mov    %rsi,0x8(%rsp)
  4064b9:	73 75                	jae    406530 <dlerror@plt+0x4070>
  4064bb:	48 8d bd 20 10 00 00 	lea    0x1020(%rbp),%rdi
  4064c2:	ff 15 60 ce 00 00    	call   *0xce60(%rip)        # 413328 <stderr@GLIBC_2.2.5+0x40a0>
  4064c8:	48 8b 74 24 08       	mov    0x8(%rsp),%rsi
  4064cd:	bf f3 aa 40 00       	mov    $0x40aaf3,%edi
  4064d2:	49 89 c4             	mov    %rax,%r12
  4064d5:	48 8b 85 20 20 00 00 	mov    0x2020(%rbp),%rax
  4064dc:	8b 56 04             	mov    0x4(%rsi),%edx
  4064df:	4c 89 e6             	mov    %r12,%rsi
  4064e2:	48 03 90 00 10 00 00 	add    0x1000(%rax),%rdx
  4064e9:	31 c0                	xor    %eax,%eax
  4064eb:	ff 15 2f ce 00 00    	call   *0xce2f(%rip)        # 413320 <stderr@GLIBC_2.2.5+0x4098>
  4064f1:	4c 89 e7             	mov    %r12,%rdi
  4064f4:	48 89 c5             	mov    %rax,%rbp
  4064f7:	ff 15 5b cf 00 00    	call   *0xcf5b(%rip)        # 413458 <stderr@GLIBC_2.2.5+0x41d0>
  4064fd:	48 85 ed             	test   %rbp,%rbp
  406500:	74 65                	je     406567 <dlerror@plt+0x40a7>
  406502:	bf fb aa 40 00       	mov    $0x40aafb,%edi
  406507:	48 89 ee             	mov    %rbp,%rsi
  40650a:	ff 15 30 ce 00 00    	call   *0xce30(%rip)        # 413340 <stderr@GLIBC_2.2.5+0x40b8>
  406510:	48 89 ef             	mov    %rbp,%rdi
  406513:	41 89 c4             	mov    %eax,%r12d
  406516:	ff 15 3c cf 00 00    	call   *0xcf3c(%rip)        # 413458 <stderr@GLIBC_2.2.5+0x41d0>
  40651c:	45 85 e4             	test   %r12d,%r12d
  40651f:	75 2d                	jne    40654e <dlerror@plt+0x408e>
  406521:	48 83 c4 10          	add    $0x10,%rsp
  406525:	44 89 e0             	mov    %r12d,%eax
  406528:	5b                   	pop    %rbx
  406529:	5d                   	pop    %rbp
  40652a:	41 5c                	pop    %r12
  40652c:	c3                   	ret    
  40652d:	0f 1f 00             	nopl   (%rax)
  406530:	31 c0                	xor    %eax,%eax
  406532:	bf b8 ad 40 00       	mov    $0x40adb8,%edi
  406537:	41 bc ff ff ff ff    	mov    $0xffffffff,%r12d
  40653d:	e8 5e cd ff ff       	call   4032a0 <dlerror@plt+0xde0>
  406542:	48 83 c4 10          	add    $0x10,%rsp
  406546:	44 89 e0             	mov    %r12d,%eax
  406549:	5b                   	pop    %rbx
  40654a:	5d                   	pop    %rbp
  40654b:	41 5c                	pop    %r12
  40654d:	c3                   	ret    
  40654e:	be fb aa 40 00       	mov    $0x40aafb,%esi
  406553:	bf 18 ae 40 00       	mov    $0x40ae18,%edi
  406558:	31 c0                	xor    %eax,%eax
  40655a:	41 bc ff ff ff ff    	mov    $0xffffffff,%r12d
  406560:	e8 3b cd ff ff       	call   4032a0 <dlerror@plt+0xde0>
  406565:	eb ba                	jmp    406521 <dlerror@plt+0x4061>
  406567:	bf e8 ad 40 00       	mov    $0x40ade8,%edi
  40656c:	31 c0                	xor    %eax,%eax
  40656e:	41 bc ff ff ff ff    	mov    $0xffffffff,%r12d
  406574:	e8 27 cd ff ff       	call   4032a0 <dlerror@plt+0xde0>
  406579:	eb a6                	jmp    406521 <dlerror@plt+0x4061>
  40657b:	0f 1f 44 00 00       	nopl   0x0(%rax,%rax,1)
  406580:	80 bf 40 30 00 00 00 	cmpb   $0x0,0x3040(%rdi)
  406587:	74 3f                	je     4065c8 <dlerror@plt+0x4108>
  406589:	48 83 ec 08          	sub    $0x8,%rsp
  40658d:	ff 15 9d ce 00 00    	call   *0xce9d(%rip)        # 413430 <stderr@GLIBC_2.2.5+0x41a8>
  406593:	85 c0                	test   %eax,%eax
  406595:	74 29                	je     4065c0 <dlerror@plt+0x4100>
  406597:	31 f6                	xor    %esi,%esi
  406599:	bf 50 ae 40 00       	mov    $0x40ae50,%edi
  40659e:	ff 15 b4 cd 00 00    	call   *0xcdb4(%rip)        # 413358 <stderr@GLIBC_2.2.5+0x40d0>
  4065a4:	31 f6                	xor    %esi,%esi
  4065a6:	bf d8 ae 40 00       	mov    $0x40aed8,%edi
  4065ab:	ff 15 a7 cd 00 00    	call   *0xcda7(%rip)        # 413358 <stderr@GLIBC_2.2.5+0x40d0>
  4065b1:	48 83 c4 08          	add    $0x8,%rsp
  4065b5:	ff 25 85 ce 00 00    	jmp    *0xce85(%rip)        # 413440 <stderr@GLIBC_2.2.5+0x41b8>
  4065bb:	0f 1f 44 00 00       	nopl   0x0(%rax,%rax,1)
  4065c0:	48 83 c4 08          	add    $0x8,%rsp
  4065c4:	c3                   	ret    
  4065c5:	0f 1f 00             	nopl   (%rax)
  4065c8:	c3                   	ret    
  4065c9:	0f 1f 80 00 00 00 00 	nopl   0x0(%rax)
  4065d0:	55                   	push   %rbp
  4065d1:	31 ed                	xor    %ebp,%ebp
  4065d3:	53                   	push   %rbx
  4065d4:	48 89 fb             	mov    %rdi,%rbx
  4065d7:	48 83 ec 08          	sub    $0x8,%rsp
  4065db:	48 8b 47 30          	mov    0x30(%rdi),%rax
  4065df:	48 85 c0             	test   %rax,%rax
  4065e2:	74 0c                	je     4065f0 <dlerror@plt+0x4130>
  4065e4:	48 8b 77 38          	mov    0x38(%rdi),%rsi
  4065e8:	48 8b 7f 10          	mov    0x10(%rdi),%rdi
  4065ec:	ff d0                	call   *%rax
  4065ee:	89 c5                	mov    %eax,%ebp
  4065f0:	80 7b 18 00          	cmpb   $0x0,0x18(%rbx)
  4065f4:	75 2c                	jne    406622 <dlerror@plt+0x4162>
  4065f6:	48 8b 43 10          	mov    0x10(%rbx),%rax
  4065fa:	48 8d 78 08          	lea    0x8(%rax),%rdi
  4065fe:	ff 15 0c cf 00 00    	call   *0xcf0c(%rip)        # 413510 <stderr@GLIBC_2.2.5+0x4288>
  406604:	48 8b 43 28          	mov    0x28(%rbx),%rax
  406608:	48 8b 7b 20          	mov    0x20(%rbx),%rdi
  40660c:	89 28                	mov    %ebp,(%rax)
  40660e:	ff 15 dc ce 00 00    	call   *0xcedc(%rip)        # 4134f0 <stderr@GLIBC_2.2.5+0x4268>
  406614:	48 8b 7b 10          	mov    0x10(%rbx),%rdi
  406618:	48 83 c7 08          	add    $0x8,%rdi
  40661c:	ff 15 e6 ce 00 00    	call   *0xcee6(%rip)        # 413508 <stderr@GLIBC_2.2.5+0x4280>
  406622:	48 83 c4 08          	add    $0x8,%rsp
  406626:	b8 01 00 00 00       	mov    $0x1,%eax
  40662b:	5b                   	pop    %rbx
  40662c:	5d                   	pop    %rbp
  40662d:	c3                   	ret    
  40662e:	66 90                	xchg   %ax,%ax
  406630:	48 83 ec 08          	sub    $0x8,%rsp
  406634:	48 89 f1             	mov    %rsi,%rcx
  406637:	48 8b 7f 38          	mov    0x38(%rdi),%rdi
  40663b:	31 d2                	xor    %edx,%edx
  40663d:	41 b8 01 00 00 00    	mov    $0x1,%r8d
  406643:	be 59 af 40 00       	mov    $0x40af59,%esi
  406648:	ff 15 7a ce 00 00    	call   *0xce7a(%rip)        # 4134c8 <stderr@GLIBC_2.2.5+0x4240>
  40664e:	31 c0                	xor    %eax,%eax
  406650:	48 83 c4 08          	add    $0x8,%rsp
  406654:	c3                   	ret    
  406655:	66 66 2e 0f 1f 84 00 	data16 cs nopw 0x0(%rax,%rax,1)
  40665c:	00 00 00 00 
  406660:	31 c0                	xor    %eax,%eax
  406662:	c3                   	ret    
  406663:	66 66 2e 0f 1f 84 00 	data16 cs nopw 0x0(%rax,%rax,1)
  40666a:	00 00 00 00 
  40666e:	66 90                	xchg   %ax,%ax
  406670:	c6 47 30 01          	movb   $0x1,0x30(%rdi)
  406674:	31 c0                	xor    %eax,%eax
  406676:	c3                   	ret    
  406677:	66 0f 1f 84 00 00 00 	nopw   0x0(%rax,%rax,1)
  40667e:	00 00 
  406680:	41 55                	push   %r13
  406682:	41 54                	push   %r12
  406684:	55                   	push   %rbp
  406685:	53                   	push   %rbx
  406686:	48 89 fb             	mov    %rdi,%rbx
  406689:	48 83 ec 08          	sub    $0x8,%rsp
  40668d:	ff 15 7d ce 00 00    	call   *0xce7d(%rip)        # 413510 <stderr@GLIBC_2.2.5+0x4288>
  406693:	c6 43 30 00          	movb   $0x0,0x30(%rbx)
  406697:	ff 15 bb ce 00 00    	call   *0xcebb(%rip)        # 413558 <stderr@GLIBC_2.2.5+0x42d0>
  40669d:	48 83 7b 40 00       	cmpq   $0x0,0x40(%rbx)
  4066a2:	48 89 43 38          	mov    %rax,0x38(%rbx)
  4066a6:	48 89 c7             	mov    %rax,%rdi
  4066a9:	0f 84 d1 01 00 00    	je     406880 <dlerror@plt+0x43c0>
  4066af:	45 31 c0             	xor    %r8d,%r8d
  4066b2:	48 89 d9             	mov    %rbx,%rcx
  4066b5:	ba 60 66 40 00       	mov    $0x406660,%edx
  4066ba:	be 65 af 40 00       	mov    $0x40af65,%esi
  4066bf:	ff 15 fb cd 00 00    	call   *0xcdfb(%rip)        # 4134c0 <stderr@GLIBC_2.2.5+0x4238>
  4066c5:	45 31 c0             	xor    %r8d,%r8d
  4066c8:	48 8b 7b 38          	mov    0x38(%rbx),%rdi
  4066cc:	48 89 d9             	mov    %rbx,%rcx
  4066cf:	48 89 c5             	mov    %rax,%rbp
  4066d2:	4c 8d 63 10          	lea    0x10(%rbx),%r12
  4066d6:	4c 8d 6b 18          	lea    0x18(%rbx),%r13
  4066da:	ba c0 69 40 00       	mov    $0x4069c0,%edx
  4066df:	be 6d af 40 00       	mov    $0x40af6d,%esi
  4066e4:	ff 15 d6 cd 00 00    	call   *0xcdd6(%rip)        # 4134c0 <stderr@GLIBC_2.2.5+0x4238>
  4066ea:	48 85 ed             	test   %rbp,%rbp
  4066ed:	48 8b 7b 38          	mov    0x38(%rbx),%rdi
  4066f1:	48 89 d9             	mov    %rbx,%rcx
  4066f4:	40 0f 94 c5          	sete   %bpl
  4066f8:	48 85 c0             	test   %rax,%rax
  4066fb:	ba 70 66 40 00       	mov    $0x406670,%edx
  406700:	be 7d af 40 00       	mov    $0x40af7d,%esi
  406705:	0f 94 c0             	sete   %al
  406708:	45 31 c0             	xor    %r8d,%r8d
  40670b:	09 c5                	or     %eax,%ebp
  40670d:	ff 15 ad cd 00 00    	call   *0xcdad(%rip)        # 4134c0 <stderr@GLIBC_2.2.5+0x4238>
  406713:	48 8b 7b 38          	mov    0x38(%rbx),%rdi
  406717:	ba ff ff ff ff       	mov    $0xffffffff,%edx
  40671c:	be 82 af 40 00       	mov    $0x40af82,%esi
  406721:	48 85 c0             	test   %rax,%rax
  406724:	0f 94 c0             	sete   %al
  406727:	31 c9                	xor    %ecx,%ecx
  406729:	09 c5                	or     %eax,%ebp
  40672b:	ff 15 57 cd 00 00    	call   *0xcd57(%rip)        # 413488 <stderr@GLIBC_2.2.5+0x4200>
  406731:	48 8b 7b 38          	mov    0x38(%rbx),%rdi
  406735:	45 31 c0             	xor    %r8d,%r8d
  406738:	48 89 d9             	mov    %rbx,%rcx
  40673b:	ba a0 68 40 00       	mov    $0x4068a0,%edx
  406740:	be 95 af 40 00       	mov    $0x40af95,%esi
  406745:	ff 15 75 cd 00 00    	call   *0xcd75(%rip)        # 4134c0 <stderr@GLIBC_2.2.5+0x4238>
  40674b:	48 85 c0             	test   %rax,%rax
  40674e:	0f 84 c4 00 00 00    	je     406818 <dlerror@plt+0x4358>
  406754:	40 84 ed             	test   %bpl,%bpl
  406757:	0f 85 bb 00 00 00    	jne    406818 <dlerror@plt+0x4358>
  40675d:	48 8b 7b 38          	mov    0x38(%rbx),%rdi
  406761:	ff 15 f9 cd 00 00    	call   *0xcdf9(%rip)        # 413560 <stderr@GLIBC_2.2.5+0x42d8>
  406767:	48 8b 7b 38          	mov    0x38(%rbx),%rdi
  40676b:	89 c5                	mov    %eax,%ebp
  40676d:	ff 15 f5 cc 00 00    	call   *0xccf5(%rip)        # 413468 <stderr@GLIBC_2.2.5+0x41e0>
  406773:	09 c5                	or     %eax,%ebp
  406775:	0f 85 9d 00 00 00    	jne    406818 <dlerror@plt+0x4358>
  40677b:	8b b3 68 30 00 00    	mov    0x3068(%rbx),%esi
  406781:	48 8b bb 60 30 00 00 	mov    0x3060(%rbx),%rdi
  406788:	ff 15 1a cd 00 00    	call   *0xcd1a(%rip)        # 4134a8 <stderr@GLIBC_2.2.5+0x4220>
  40678e:	31 d2                	xor    %edx,%edx
  406790:	48 8b 7b 38          	mov    0x38(%rbx),%rdi
  406794:	be 9c af 40 00       	mov    $0x40af9c,%esi
  406799:	41 b8 01 00 00 00    	mov    $0x1,%r8d
  40679f:	48 89 c1             	mov    %rax,%rcx
  4067a2:	ff 15 f8 cc 00 00    	call   *0xccf8(%rip)        # 4134a0 <stderr@GLIBC_2.2.5+0x4218>
  4067a8:	48 8b bb 60 30 00 00 	mov    0x3060(%rbx),%rdi
  4067af:	e8 ac b8 ff ff       	call   402060 <free@plt>
  4067b4:	8b 93 58 30 00 00    	mov    0x3058(%rbx),%edx
  4067ba:	48 8b b3 50 30 00 00 	mov    0x3050(%rbx),%rsi
  4067c1:	b9 01 00 00 00       	mov    $0x1,%ecx
  4067c6:	48 c7 83 60 30 00 00 	movq   $0x0,0x3060(%rbx)
  4067cd:	00 00 00 00 
  4067d1:	48 8b 7b 38          	mov    0x38(%rbx),%rdi
  4067d5:	ff 15 ad cc 00 00    	call   *0xccad(%rip)        # 413488 <stderr@GLIBC_2.2.5+0x4200>
  4067db:	4c 89 e7             	mov    %r12,%rdi
  4067de:	ff 15 2c cd 00 00    	call   *0xcd2c(%rip)        # 413510 <stderr@GLIBC_2.2.5+0x4288>
  4067e4:	4c 89 ef             	mov    %r13,%rdi
  4067e7:	ff 15 03 cd 00 00    	call   *0xcd03(%rip)        # 4134f0 <stderr@GLIBC_2.2.5+0x4268>
  4067ed:	4c 89 e7             	mov    %r12,%rdi
  4067f0:	ff 15 12 cd 00 00    	call   *0xcd12(%rip)        # 413508 <stderr@GLIBC_2.2.5+0x4280>
  4067f6:	eb 16                	jmp    40680e <dlerror@plt+0x434e>
  4067f8:	0f 1f 84 00 00 00 00 	nopl   0x0(%rax,%rax,1)
  4067ff:	00 
  406800:	80 7b 30 00          	cmpb   $0x0,0x30(%rbx)
  406804:	75 12                	jne    406818 <dlerror@plt+0x4358>
  406806:	31 ff                	xor    %edi,%edi
  406808:	ff 15 3a cd 00 00    	call   *0xcd3a(%rip)        # 413548 <stderr@GLIBC_2.2.5+0x42c0>
  40680e:	ff 15 4c cc 00 00    	call   *0xcc4c(%rip)        # 413460 <stderr@GLIBC_2.2.5+0x41d8>
  406814:	85 c0                	test   %eax,%eax
  406816:	7f e8                	jg     406800 <dlerror@plt+0x4340>
  406818:	48 8d 6b 28          	lea    0x28(%rbx),%rbp
  40681c:	48 89 ef             	mov    %rbp,%rdi
  40681f:	ff 15 eb cc 00 00    	call   *0xcceb(%rip)        # 413510 <stderr@GLIBC_2.2.5+0x4288>
  406825:	48 8b 7b 38          	mov    0x38(%rbx),%rdi
  406829:	ff 15 01 cd 00 00    	call   *0xcd01(%rip)        # 413530 <stderr@GLIBC_2.2.5+0x42a8>
  40682f:	48 89 df             	mov    %rbx,%rdi
  406832:	48 c7 43 38 00 00 00 	movq   $0x0,0x38(%rbx)
  406839:	00 
  40683a:	ff 15 c8 cc 00 00    	call   *0xccc8(%rip)        # 413508 <stderr@GLIBC_2.2.5+0x4280>
  406840:	4c 89 e7             	mov    %r12,%rdi
  406843:	ff 15 c7 cc 00 00    	call   *0xccc7(%rip)        # 413510 <stderr@GLIBC_2.2.5+0x4288>
  406849:	4c 89 ef             	mov    %r13,%rdi
  40684c:	ff 15 9e cc 00 00    	call   *0xcc9e(%rip)        # 4134f0 <stderr@GLIBC_2.2.5+0x4268>
  406852:	4c 89 e7             	mov    %r12,%rdi
  406855:	ff 15 ad cc 00 00    	call   *0xccad(%rip)        # 413508 <stderr@GLIBC_2.2.5+0x4280>
  40685b:	ff 15 d7 cc 00 00    	call   *0xccd7(%rip)        # 413538 <stderr@GLIBC_2.2.5+0x42b0>
  406861:	48 8d 7b 20          	lea    0x20(%rbx),%rdi
  406865:	ff 15 85 cc 00 00    	call   *0xcc85(%rip)        # 4134f0 <stderr@GLIBC_2.2.5+0x4268>
  40686b:	48 83 c4 08          	add    $0x8,%rsp
  40686f:	48 89 ef             	mov    %rbp,%rdi
  406872:	5b                   	pop    %rbx
  406873:	5d                   	pop    %rbp
  406874:	41 5c                	pop    %r12
  406876:	41 5d                	pop    %r13
  406878:	ff 25 8a cc 00 00    	jmp    *0xcc8a(%rip)        # 413508 <stderr@GLIBC_2.2.5+0x4280>
  40687e:	66 90                	xchg   %ax,%ax
  406880:	ff 15 9a cc 00 00    	call   *0xcc9a(%rip)        # 413520 <stderr@GLIBC_2.2.5+0x4298>
  406886:	48 8b 7b 38          	mov    0x38(%rbx),%rdi
  40688a:	48 89 43 40          	mov    %rax,0x40(%rbx)
  40688e:	e9 1c fe ff ff       	jmp    4066af <dlerror@plt+0x41ef>
  406893:	66 66 2e 0f 1f 84 00 	data16 cs nopw 0x0(%rax,%rax,1)
  40689a:	00 00 00 00 
  40689e:	66 90                	xchg   %ax,%ax
  4068a0:	41 57                	push   %r15
  4068a2:	4c 63 fa             	movslq %edx,%r15
  4068a5:	41 56                	push   %r14
  4068a7:	41 55                	push   %r13
  4068a9:	55                   	push   %rbp
  4068aa:	48 89 f5             	mov    %rsi,%rbp
  4068ad:	53                   	push   %rbx
  4068ae:	48 89 cb             	mov    %rcx,%rbx
  4068b1:	48 83 ec 10          	sub    $0x10,%rsp
  4068b5:	4a 8b 7c f9 f8       	mov    -0x8(%rcx,%r15,8),%rdi
  4068ba:	ff 15 f8 cb 00 00    	call   *0xcbf8(%rip)        # 4134b8 <stderr@GLIBC_2.2.5+0x4230>
  4068c0:	48 89 c7             	mov    %rax,%rdi
  4068c3:	e8 88 e0 ff ff       	call   404950 <dlerror@plt+0x2490>
  4068c8:	85 c0                	test   %eax,%eax
  4068ca:	75 14                	jne    4068e0 <dlerror@plt+0x4420>
  4068cc:	48 83 c4 10          	add    $0x10,%rsp
  4068d0:	5b                   	pop    %rbx
  4068d1:	5d                   	pop    %rbp
  4068d2:	41 5d                	pop    %r13
  4068d4:	41 5e                	pop    %r14
  4068d6:	41 5f                	pop    %r15
  4068d8:	c3                   	ret    
  4068d9:	0f 1f 80 00 00 00 00 	nopl   0x0(%rax)
  4068e0:	42 8d 3c fd 00 00 00 	lea    0x0(,%r15,8),%edi
  4068e7:	00 
  4068e8:	4d 89 fd             	mov    %r15,%r13
  4068eb:	ff 15 87 cb 00 00    	call   *0xcb87(%rip)        # 413478 <stderr@GLIBC_2.2.5+0x41f0>
  4068f1:	be ff ff ff ff       	mov    $0xffffffff,%esi
  4068f6:	bf 94 af 40 00       	mov    $0x40af94,%edi
  4068fb:	49 89 c6             	mov    %rax,%r14
  4068fe:	ff 15 ac cb 00 00    	call   *0xcbac(%rip)        # 4134b0 <stderr@GLIBC_2.2.5+0x4228>
  406904:	49 89 06             	mov    %rax,(%r14)
  406907:	41 83 ff 01          	cmp    $0x1,%r15d
  40690b:	7e 1c                	jle    406929 <dlerror@plt+0x4469>
  40690d:	b8 01 00 00 00       	mov    $0x1,%eax
  406912:	66 0f 1f 44 00 00    	nopw   0x0(%rax,%rax,1)
  406918:	48 8b 14 c3          	mov    (%rbx,%rax,8),%rdx
  40691c:	49 89 14 c6          	mov    %rdx,(%r14,%rax,8)
  406920:	48 83 c0 01          	add    $0x1,%rax
  406924:	4c 39 f8             	cmp    %r15,%rax
  406927:	75 ef                	jne    406918 <dlerror@plt+0x4458>
  406929:	4c 89 f2             	mov    %r14,%rdx
  40692c:	44 89 ee             	mov    %r13d,%esi
  40692f:	48 89 ef             	mov    %rbp,%rdi
  406932:	31 c9                	xor    %ecx,%ecx
  406934:	ff 15 46 cb 00 00    	call   *0xcb46(%rip)        # 413480 <stderr@GLIBC_2.2.5+0x41f8>
  40693a:	4c 89 f7             	mov    %r14,%rdi
  40693d:	89 44 24 0c          	mov    %eax,0xc(%rsp)
  406941:	ff 15 29 cb 00 00    	call   *0xcb29(%rip)        # 413470 <stderr@GLIBC_2.2.5+0x41e8>
  406947:	8b 44 24 0c          	mov    0xc(%rsp),%eax
  40694b:	48 83 c4 10          	add    $0x10,%rsp
  40694f:	5b                   	pop    %rbx
  406950:	5d                   	pop    %rbp
  406951:	41 5d                	pop    %r13
  406953:	41 5e                	pop    %r14
  406955:	41 5f                	pop    %r15
  406957:	c3                   	ret    
  406958:	0f 1f 84 00 00 00 00 	nopl   0x0(%rax,%rax,1)
  40695f:	00 
  406960:	41 54                	push   %r12
  406962:	49 89 fc             	mov    %rdi,%r12
  406965:	55                   	push   %rbp
  406966:	49 81 c4 49 20 00 00 	add    $0x2049,%r12
  40696d:	48 89 f5             	mov    %rsi,%rbp
  406970:	48 81 ec 08 10 00 00 	sub    $0x1008,%rsp
  406977:	48 8b 7a 20          	mov    0x20(%rdx),%rdi
  40697b:	ff 15 37 cb 00 00    	call   *0xcb37(%rip)        # 4134b8 <stderr@GLIBC_2.2.5+0x4230>
  406981:	4c 89 e6             	mov    %r12,%rsi
  406984:	48 89 e7             	mov    %rsp,%rdi
  406987:	48 89 c2             	mov    %rax,%rdx
  40698a:	e8 21 df ff ff       	call   4048b0 <dlerror@plt+0x23f0>
  40698f:	4c 89 e1             	mov    %r12,%rcx
  406992:	48 89 ef             	mov    %rbp,%rdi
  406995:	31 d2                	xor    %edx,%edx
  406997:	41 b8 01 00 00 00    	mov    $0x1,%r8d
  40699d:	be a8 af 40 00       	mov    $0x40afa8,%esi
  4069a2:	ff 15 20 cb 00 00    	call   *0xcb20(%rip)        # 4134c8 <stderr@GLIBC_2.2.5+0x4240>
  4069a8:	48 89 e6             	mov    %rsp,%rsi
  4069ab:	48 89 ef             	mov    %rbp,%rdi
  4069ae:	ff 15 dc ca 00 00    	call   *0xcadc(%rip)        # 413490 <stderr@GLIBC_2.2.5+0x4208>
  4069b4:	48 81 c4 08 10 00 00 	add    $0x1008,%rsp
  4069bb:	5d                   	pop    %rbp
  4069bc:	41 5c                	pop    %r12
  4069be:	c3                   	ret    
  4069bf:	90                   	nop
  4069c0:	41 55                	push   %r13
  4069c2:	49 89 f5             	mov    %rsi,%r13
  4069c5:	41 54                	push   %r12
  4069c7:	49 89 cc             	mov    %rcx,%r12
  4069ca:	55                   	push   %rbp
  4069cb:	48 89 fd             	mov    %rdi,%rbp
  4069ce:	48 8b 79 20          	mov    0x20(%rcx),%rdi
  4069d2:	ff 15 e0 ca 00 00    	call   *0xcae0(%rip)        # 4134b8 <stderr@GLIBC_2.2.5+0x4230>
  4069d8:	bf b3 af 40 00       	mov    $0x40afb3,%edi
  4069dd:	b9 07 00 00 00       	mov    $0x7,%ecx
  4069e2:	48 89 c6             	mov    %rax,%rsi
  4069e5:	f3 a6                	repz cmpsb %es:(%rdi),%ds:(%rsi)
  4069e7:	0f 97 c0             	seta   %al
  4069ea:	1c 00                	sbb    $0x0,%al
  4069ec:	84 c0                	test   %al,%al
  4069ee:	74 10                	je     406a00 <dlerror@plt+0x4540>
  4069f0:	5d                   	pop    %rbp
  4069f1:	b8 01 00 00 00       	mov    $0x1,%eax
  4069f6:	41 5c                	pop    %r12
  4069f8:	41 5d                	pop    %r13
  4069fa:	c3                   	ret    
  4069fb:	0f 1f 44 00 00       	nopl   0x0(%rax,%rax,1)
  406a00:	4c 89 e2             	mov    %r12,%rdx
  406a03:	4c 89 ee             	mov    %r13,%rsi
  406a06:	48 89 ef             	mov    %rbp,%rdi
  406a09:	5d                   	pop    %rbp
  406a0a:	41 5c                	pop    %r12
  406a0c:	41 5d                	pop    %r13
  406a0e:	e9 4d ff ff ff       	jmp    406960 <dlerror@plt+0x44a0>
  406a13:	66 66 2e 0f 1f 84 00 	data16 cs nopw 0x0(%rax,%rax,1)
  406a1a:	00 00 00 00 
  406a1e:	66 90                	xchg   %ax,%ax
  406a20:	41 57                	push   %r15
  406a22:	41 56                	push   %r14
  406a24:	41 55                	push   %r13
  406a26:	41 54                	push   %r12
  406a28:	49 89 f4             	mov    %rsi,%r12
  406a2b:	55                   	push   %rbp
  406a2c:	53                   	push   %rbx
  406a2d:	48 89 fb             	mov    %rdi,%rbx
  406a30:	48 83 ec 18          	sub    $0x18,%rsp
  406a34:	48 8b be 20 20 00 00 	mov    0x2020(%rsi),%rdi
  406a3b:	48 8b b7 20 10 00 00 	mov    0x1020(%rdi),%rsi
  406a42:	e8 e9 be ff ff       	call   402930 <dlerror@plt+0x470>
  406a47:	48 85 c0             	test   %rax,%rax
  406a4a:	0f 84 52 01 00 00    	je     406ba2 <dlerror@plt+0x46e2>
  406a50:	49 81 c4 32 20 00 00 	add    $0x2032,%r12
  406a57:	48 8d 7b 49          	lea    0x49(%rbx),%rdi
  406a5b:	48 89 c2             	mov    %rax,%rdx
  406a5e:	48 89 c5             	mov    %rax,%rbp
  406a61:	4c 89 e6             	mov    %r12,%rsi
  406a64:	e8 47 de ff ff       	call   4048b0 <dlerror@plt+0x23f0>
  406a69:	48 85 c0             	test   %rax,%rax
  406a6c:	0f 84 50 01 00 00    	je     406bc2 <dlerror@plt+0x4702>
  406a72:	48 8d 55 10          	lea    0x10(%rbp),%rdx
  406a76:	48 8d bb 49 10 00 00 	lea    0x1049(%rbx),%rdi
  406a7d:	4c 89 e6             	mov    %r12,%rsi
  406a80:	e8 2b de ff ff       	call   4048b0 <dlerror@plt+0x23f0>
  406a85:	48 85 c0             	test   %rax,%rax
  406a88:	0f 84 1b 01 00 00    	je     406ba9 <dlerror@plt+0x46e9>
  406a8e:	48 8d 55 20          	lea    0x20(%rbp),%rdx
  406a92:	48 8d bb 49 20 00 00 	lea    0x2049(%rbx),%rdi
  406a99:	4c 89 e6             	mov    %r12,%rsi
  406a9c:	e8 0f de ff ff       	call   4048b0 <dlerror@plt+0x23f0>
  406aa1:	48 85 c0             	test   %rax,%rax
  406aa4:	0f 84 ff 00 00 00    	je     406ba9 <dlerror@plt+0x46e9>
  406aaa:	44 8b 75 30          	mov    0x30(%rbp),%r14d
  406aae:	bf 01 00 00 00       	mov    $0x1,%edi
  406ab3:	41 0f ce             	bswap  %r14d
  406ab6:	44 89 b3 58 30 00 00 	mov    %r14d,0x3058(%rbx)
  406abd:	41 8d 76 01          	lea    0x1(%r14),%esi
  406ac1:	48 63 f6             	movslq %esi,%rsi
  406ac4:	e8 87 b7 ff ff       	call   402250 <calloc@plt>
  406ac9:	44 8b 6d 38          	mov    0x38(%rbp),%r13d
  406acd:	48 89 83 50 30 00 00 	mov    %rax,0x3050(%rbx)
  406ad4:	41 0f cd             	bswap  %r13d
  406ad7:	44 89 ab 68 30 00 00 	mov    %r13d,0x3068(%rbx)
  406ade:	4d 63 ed             	movslq %r13d,%r13
  406ae1:	4c 89 ef             	mov    %r13,%rdi
  406ae4:	48 89 44 24 08       	mov    %rax,0x8(%rsp)
  406ae9:	e8 62 b8 ff ff       	call   402350 <malloc@plt>
  406aee:	44 8b 65 40          	mov    0x40(%rbp),%r12d
  406af2:	48 89 83 60 30 00 00 	mov    %rax,0x3060(%rbx)
  406af9:	41 0f cc             	bswap  %r12d
  406afc:	44 89 a3 78 30 00 00 	mov    %r12d,0x3078(%rbx)
  406b03:	4d 63 e4             	movslq %r12d,%r12
  406b06:	4c 89 e7             	mov    %r12,%rdi
  406b09:	48 89 04 24          	mov    %rax,(%rsp)
  406b0d:	e8 3e b8 ff ff       	call   402350 <malloc@plt>
  406b12:	4c 8b 04 24          	mov    (%rsp),%r8
  406b16:	4c 8b 4c 24 08       	mov    0x8(%rsp),%r9
  406b1b:	48 89 83 70 30 00 00 	mov    %rax,0x3070(%rbx)
  406b22:	49 89 c7             	mov    %rax,%r15
  406b25:	4d 85 c0             	test   %r8,%r8
  406b28:	0f 94 c2             	sete   %dl
  406b2b:	4d 85 c9             	test   %r9,%r9
  406b2e:	0f 94 c0             	sete   %al
  406b31:	08 c2                	or     %al,%dl
  406b33:	0f 85 a2 00 00 00    	jne    406bdb <dlerror@plt+0x471b>
  406b39:	4d 85 ff             	test   %r15,%r15
  406b3c:	0f 84 99 00 00 00    	je     406bdb <dlerror@plt+0x471b>
  406b42:	8b 75 34             	mov    0x34(%rbp),%esi
  406b45:	4c 89 cf             	mov    %r9,%rdi
  406b48:	49 63 d6             	movslq %r14d,%rdx
  406b4b:	4c 89 04 24          	mov    %r8,(%rsp)
  406b4f:	0f ce                	bswap  %esi
  406b51:	89 f6                	mov    %esi,%esi
  406b53:	48 01 ee             	add    %rbp,%rsi
  406b56:	e8 65 b7 ff ff       	call   4022c0 <memcpy@plt>
  406b5b:	8b 75 3c             	mov    0x3c(%rbp),%esi
  406b5e:	4c 8b 04 24          	mov    (%rsp),%r8
  406b62:	4c 89 ea             	mov    %r13,%rdx
  406b65:	0f ce                	bswap  %esi
  406b67:	89 f6                	mov    %esi,%esi
  406b69:	4c 89 c7             	mov    %r8,%rdi
  406b6c:	48 01 ee             	add    %rbp,%rsi
  406b6f:	e8 4c b7 ff ff       	call   4022c0 <memcpy@plt>
  406b74:	8b 75 44             	mov    0x44(%rbp),%esi
  406b77:	4c 89 e2             	mov    %r12,%rdx
  406b7a:	4c 89 ff             	mov    %r15,%rdi
  406b7d:	0f ce                	bswap  %esi
  406b7f:	89 f6                	mov    %esi,%esi
  406b81:	48 01 ee             	add    %rbp,%rsi
  406b84:	e8 37 b7 ff ff       	call   4022c0 <memcpy@plt>
  406b89:	48 89 ef             	mov    %rbp,%rdi
  406b8c:	e8 cf b4 ff ff       	call   402060 <free@plt>
  406b91:	31 c0                	xor    %eax,%eax
  406b93:	48 83 c4 18          	add    $0x18,%rsp
  406b97:	5b                   	pop    %rbx
  406b98:	5d                   	pop    %rbp
  406b99:	41 5c                	pop    %r12
  406b9b:	41 5d                	pop    %r13
  406b9d:	41 5e                	pop    %r14
  406b9f:	41 5f                	pop    %r15
  406ba1:	c3                   	ret    
  406ba2:	b8 ff ff ff ff       	mov    $0xffffffff,%eax
  406ba7:	eb ea                	jmp    406b93 <dlerror@plt+0x46d3>
  406ba9:	bf 08 b0 40 00       	mov    $0x40b008,%edi
  406bae:	e8 4d c6 ff ff       	call   403200 <dlerror@plt+0xd40>
  406bb3:	48 89 ef             	mov    %rbp,%rdi
  406bb6:	e8 a5 b4 ff ff       	call   402060 <free@plt>
  406bbb:	b8 ff ff ff ff       	mov    $0xffffffff,%eax
  406bc0:	eb d1                	jmp    406b93 <dlerror@plt+0x46d3>
  406bc2:	bf c0 af 40 00       	mov    $0x40afc0,%edi
  406bc7:	e8 34 c6 ff ff       	call   403200 <dlerror@plt+0xd40>
  406bcc:	48 89 ef             	mov    %rbp,%rdi
  406bcf:	e8 8c b4 ff ff       	call   402060 <free@plt>
  406bd4:	b8 ff ff ff ff       	mov    $0xffffffff,%eax
  406bd9:	eb b8                	jmp    406b93 <dlerror@plt+0x46d3>
  406bdb:	31 c0                	xor    %eax,%eax
  406bdd:	bf 50 b0 40 00       	mov    $0x40b050,%edi
  406be2:	e8 b9 c6 ff ff       	call   4032a0 <dlerror@plt+0xde0>
  406be7:	48 89 ef             	mov    %rbp,%rdi
  406bea:	e8 71 b4 ff ff       	call   402060 <free@plt>
  406bef:	b8 ff ff ff ff       	mov    $0xffffffff,%eax
  406bf4:	eb 9d                	jmp    406b93 <dlerror@plt+0x46d3>
  406bf6:	66 2e 0f 1f 84 00 00 	cs nopw 0x0(%rax,%rax,1)
  406bfd:	00 00 00 
  406c00:	41 57                	push   %r15
  406c02:	41 56                	push   %r14
  406c04:	41 55                	push   %r13
  406c06:	41 54                	push   %r12
  406c08:	55                   	push   %rbp
  406c09:	53                   	push   %rbx
  406c0a:	48 81 ec 18 10 00 00 	sub    $0x1018,%rsp
  406c11:	80 be 30 20 00 00 00 	cmpb   $0x0,0x2030(%rsi)
  406c18:	48 89 7c 24 08       	mov    %rdi,0x8(%rsp)
  406c1d:	0f 84 1d 01 00 00    	je     406d40 <dlerror@plt+0x4880>
  406c23:	8b bf 78 30 00 00    	mov    0x3078(%rdi),%edi
  406c29:	85 ff                	test   %edi,%edi
  406c2b:	0f 84 0f 01 00 00    	je     406d40 <dlerror@plt+0x4880>
  406c31:	4c 8b b6 20 20 00 00 	mov    0x2020(%rsi),%r14
  406c38:	49 89 f5             	mov    %rsi,%r13
  406c3b:	45 31 e4             	xor    %r12d,%r12d
  406c3e:	4c 8d be 32 20 00 00 	lea    0x2032(%rsi),%r15
  406c45:	e9 b4 00 00 00       	jmp    406cfe <dlerror@plt+0x483e>
  406c4a:	66 0f 1f 44 00 00    	nopw   0x0(%rax,%rax,1)
  406c50:	55                   	push   %rbp
  406c51:	b9 00 10 00 00       	mov    $0x1000,%ecx
  406c56:	ba 01 00 00 00       	mov    $0x1,%edx
  406c5b:	4d 89 f9             	mov    %r15,%r9
  406c5e:	6a 2f                	push   $0x2f
  406c60:	41 b8 28 9c 40 00    	mov    $0x409c28,%r8d
  406c66:	be 00 10 00 00       	mov    $0x1000,%esi
  406c6b:	31 c0                	xor    %eax,%eax
  406c6d:	48 8d 7c 24 20       	lea    0x20(%rsp),%rdi
  406c72:	e8 c9 b3 ff ff       	call   402040 <__snprintf_chk@plt>
  406c77:	5a                   	pop    %rdx
  406c78:	59                   	pop    %rcx
  406c79:	3d ff 0f 00 00       	cmp    $0xfff,%eax
  406c7e:	0f 8f d4 00 00 00    	jg     406d58 <dlerror@plt+0x4898>
  406c84:	48 8d 7c 24 10       	lea    0x10(%rsp),%rdi
  406c89:	e8 c2 dc ff ff       	call   404950 <dlerror@plt+0x2490>
  406c8e:	83 f8 01             	cmp    $0x1,%eax
  406c91:	75 1f                	jne    406cb2 <dlerror@plt+0x47f2>
  406c93:	31 c0                	xor    %eax,%eax
  406c95:	41 80 bd 41 30 00 00 	cmpb   $0x0,0x3041(%r13)
  406c9c:	00 
  406c9d:	48 8d 74 24 10       	lea    0x10(%rsp),%rsi
  406ca2:	bf 00 b1 40 00       	mov    $0x40b100,%edi
  406ca7:	0f 85 f2 00 00 00    	jne    406d9f <dlerror@plt+0x48df>
  406cad:	e8 4e c5 ff ff       	call   403200 <dlerror@plt+0xd40>
  406cb2:	48 89 ea             	mov    %rbp,%rdx
  406cb5:	4c 89 fe             	mov    %r15,%rsi
  406cb8:	4c 89 ef             	mov    %r13,%rdi
  406cbb:	e8 80 0b 00 00       	call   407840 <dlerror@plt+0x5380>
  406cc0:	85 c0                	test   %eax,%eax
  406cc2:	0f 88 a8 00 00 00    	js     406d70 <dlerror@plt+0x48b0>
  406cc8:	48 8d 54 24 10       	lea    0x10(%rsp),%rdx
  406ccd:	48 89 de             	mov    %rbx,%rsi
  406cd0:	4c 89 f7             	mov    %r14,%rdi
  406cd3:	e8 d8 bd ff ff       	call   402ab0 <dlerror@plt+0x5f0>
  406cd8:	85 c0                	test   %eax,%eax
  406cda:	0f 85 a8 00 00 00    	jne    406d88 <dlerror@plt+0x48c8>
  406ce0:	48 89 ef             	mov    %rbp,%rdi
  406ce3:	e8 98 b4 ff ff       	call   402180 <strlen@plt>
  406ce8:	4d 8d 64 04 01       	lea    0x1(%r12,%rax,1),%r12
  406ced:	48 8b 44 24 08       	mov    0x8(%rsp),%rax
  406cf2:	48 63 80 78 30 00 00 	movslq 0x3078(%rax),%rax
  406cf9:	4c 39 e0             	cmp    %r12,%rax
  406cfc:	76 42                	jbe    406d40 <dlerror@plt+0x4880>
  406cfe:	48 8b 44 24 08       	mov    0x8(%rsp),%rax
  406d03:	4c 89 f7             	mov    %r14,%rdi
  406d06:	48 8b a8 70 30 00 00 	mov    0x3070(%rax),%rbp
  406d0d:	4c 01 e5             	add    %r12,%rbp
  406d10:	48 89 ee             	mov    %rbp,%rsi
  406d13:	e8 d8 c3 ff ff       	call   4030f0 <dlerror@plt+0xc30>
  406d18:	48 89 c3             	mov    %rax,%rbx
  406d1b:	48 85 c0             	test   %rax,%rax
  406d1e:	0f 85 2c ff ff ff    	jne    406c50 <dlerror@plt+0x4790>
  406d24:	31 c0                	xor    %eax,%eax
  406d26:	48 89 ee             	mov    %rbp,%rsi
  406d29:	bf 88 b0 40 00       	mov    $0x40b088,%edi
  406d2e:	e8 6d c5 ff ff       	call   4032a0 <dlerror@plt+0xde0>
  406d33:	b8 ff ff ff ff       	mov    $0xffffffff,%eax
  406d38:	eb 08                	jmp    406d42 <dlerror@plt+0x4882>
  406d3a:	66 0f 1f 44 00 00    	nopw   0x0(%rax,%rax,1)
  406d40:	31 c0                	xor    %eax,%eax
  406d42:	48 81 c4 18 10 00 00 	add    $0x1018,%rsp
  406d49:	5b                   	pop    %rbx
  406d4a:	5d                   	pop    %rbp
  406d4b:	41 5c                	pop    %r12
  406d4d:	41 5d                	pop    %r13
  406d4f:	41 5e                	pop    %r14
  406d51:	41 5f                	pop    %r15
  406d53:	c3                   	ret    
  406d54:	0f 1f 40 00          	nopl   0x0(%rax)
  406d58:	31 c0                	xor    %eax,%eax
  406d5a:	bf c0 b0 40 00       	mov    $0x40b0c0,%edi
  406d5f:	e8 3c c5 ff ff       	call   4032a0 <dlerror@plt+0xde0>
  406d64:	b8 ff ff ff ff       	mov    $0xffffffff,%eax
  406d69:	eb d7                	jmp    406d42 <dlerror@plt+0x4882>
  406d6b:	0f 1f 44 00 00       	nopl   0x0(%rax,%rax,1)
  406d70:	31 c0                	xor    %eax,%eax
  406d72:	bf 30 b1 40 00       	mov    $0x40b130,%edi
  406d77:	e8 24 c5 ff ff       	call   4032a0 <dlerror@plt+0xde0>
  406d7c:	b8 ff ff ff ff       	mov    $0xffffffff,%eax
  406d81:	eb bf                	jmp    406d42 <dlerror@plt+0x4882>
  406d83:	0f 1f 44 00 00       	nopl   0x0(%rax,%rax,1)
  406d88:	31 c0                	xor    %eax,%eax
  406d8a:	48 8d 73 12          	lea    0x12(%rbx),%rsi
  406d8e:	bf 68 b1 40 00       	mov    $0x40b168,%edi
  406d93:	e8 08 c5 ff ff       	call   4032a0 <dlerror@plt+0xde0>
  406d98:	b8 fe ff ff ff       	mov    $0xfffffffe,%eax
  406d9d:	eb a3                	jmp    406d42 <dlerror@plt+0x4882>
  406d9f:	e8 fc c4 ff ff       	call   4032a0 <dlerror@plt+0xde0>
  406da4:	b8 ff ff ff ff       	mov    $0xffffffff,%eax
  406da9:	eb 97                	jmp    406d42 <dlerror@plt+0x4882>
  406dab:	0f 1f 44 00 00       	nopl   0x0(%rax,%rax,1)
  406db0:	41 56                	push   %r14
  406db2:	41 55                	push   %r13
  406db4:	41 54                	push   %r12
  406db6:	55                   	push   %rbp
  406db7:	53                   	push   %rbx
  406db8:	4c 63 af 78 30 00 00 	movslq 0x3078(%rdi),%r13
  406dbf:	4d 85 ed             	test   %r13,%r13
  406dc2:	74 4c                	je     406e10 <dlerror@plt+0x4950>
  406dc4:	4c 8b b7 70 30 00 00 	mov    0x3070(%rdi),%r14
  406dcb:	49 89 f4             	mov    %rsi,%r12
  406dce:	31 db                	xor    %ebx,%ebx
  406dd0:	eb 18                	jmp    406dea <dlerror@plt+0x492a>
  406dd2:	66 0f 1f 44 00 00    	nopw   0x0(%rax,%rax,1)
  406dd8:	48 89 ef             	mov    %rbp,%rdi
  406ddb:	e8 a0 b3 ff ff       	call   402180 <strlen@plt>
  406de0:	48 8d 5c 03 01       	lea    0x1(%rbx,%rax,1),%rbx
  406de5:	4c 39 eb             	cmp    %r13,%rbx
  406de8:	73 26                	jae    406e10 <dlerror@plt+0x4950>
  406dea:	49 8d 2c 1e          	lea    (%r14,%rbx,1),%rbp
  406dee:	4c 89 e6             	mov    %r12,%rsi
  406df1:	48 89 ef             	mov    %rbp,%rdi
  406df4:	e8 67 b4 ff ff       	call   402260 <strcmp@plt>
  406df9:	85 c0                	test   %eax,%eax
  406dfb:	75 db                	jne    406dd8 <dlerror@plt+0x4918>
  406dfd:	5b                   	pop    %rbx
  406dfe:	b8 01 00 00 00       	mov    $0x1,%eax
  406e03:	5d                   	pop    %rbp
  406e04:	41 5c                	pop    %r12
  406e06:	41 5d                	pop    %r13
  406e08:	41 5e                	pop    %r14
  406e0a:	c3                   	ret    
  406e0b:	0f 1f 44 00 00       	nopl   0x0(%rax,%rax,1)
  406e10:	5b                   	pop    %rbx
  406e11:	31 c0                	xor    %eax,%eax
  406e13:	5d                   	pop    %rbp
  406e14:	41 5c                	pop    %r12
  406e16:	41 5d                	pop    %r13
  406e18:	41 5e                	pop    %r14
  406e1a:	c3                   	ret    
  406e1b:	0f 1f 44 00 00       	nopl   0x0(%rax,%rax,1)
  406e20:	53                   	push   %rbx
  406e21:	48 89 fb             	mov    %rdi,%rbx
  406e24:	48 83 c7 49          	add    $0x49,%rdi
  406e28:	c6 87 33 30 00 00 00 	movb   $0x0,0x3033(%rdi)
  406e2f:	e8 5c 12 00 00       	call   408090 <dlerror@plt+0x5bd0>
  406e34:	48 8d bb 49 10 00 00 	lea    0x1049(%rbx),%rdi
  406e3b:	48 89 83 80 30 00 00 	mov    %rax,0x3080(%rbx)
  406e42:	e8 49 12 00 00       	call   408090 <dlerror@plt+0x5bd0>
  406e47:	48 8b bb 80 30 00 00 	mov    0x3080(%rbx),%rdi
  406e4e:	48 89 83 88 30 00 00 	mov    %rax,0x3088(%rbx)
  406e55:	48 85 c0             	test   %rax,%rax
  406e58:	74 26                	je     406e80 <dlerror@plt+0x49c0>
  406e5a:	48 85 ff             	test   %rdi,%rdi
  406e5d:	74 21                	je     406e80 <dlerror@plt+0x49c0>
  406e5f:	48 89 c6             	mov    %rax,%rsi
  406e62:	e8 89 03 00 00       	call   4071f0 <dlerror@plt+0x4d30>
  406e67:	85 c0                	test   %eax,%eax
  406e69:	78 28                	js     406e93 <dlerror@plt+0x49d3>
  406e6b:	c6 83 7c 30 00 00 01 	movb   $0x1,0x307c(%rbx)
  406e72:	31 c0                	xor    %eax,%eax
  406e74:	5b                   	pop    %rbx
  406e75:	c3                   	ret    
  406e76:	66 2e 0f 1f 84 00 00 	cs nopw 0x0(%rax,%rax,1)
  406e7d:	00 00 00 
  406e80:	31 c0                	xor    %eax,%eax
  406e82:	bf 98 b1 40 00       	mov    $0x40b198,%edi
  406e87:	e8 14 c4 ff ff       	call   4032a0 <dlerror@plt+0xde0>
  406e8c:	b8 ff ff ff ff       	mov    $0xffffffff,%eax
  406e91:	5b                   	pop    %rbx
  406e92:	c3                   	ret    
  406e93:	b8 ff ff ff ff       	mov    $0xffffffff,%eax
  406e98:	5b                   	pop    %rbx
  406e99:	c3                   	ret    
  406e9a:	66 0f 1f 44 00 00    	nopw   0x0(%rax,%rax,1)
  406ea0:	41 54                	push   %r12
  406ea2:	be 90 30 00 00       	mov    $0x3090,%esi
  406ea7:	bf 01 00 00 00       	mov    $0x1,%edi
  406eac:	e8 9f b3 ff ff       	call   402250 <calloc@plt>
  406eb1:	49 89 c4             	mov    %rax,%r12
  406eb4:	48 85 c0             	test   %rax,%rax
  406eb7:	74 06                	je     406ebf <dlerror@plt+0x49ff>
  406eb9:	4c 89 e0             	mov    %r12,%rax
  406ebc:	41 5c                	pop    %r12
  406ebe:	c3                   	ret    
  406ebf:	e8 ac b1 ff ff       	call   402070 <__errno_location@plt>
  406ec4:	ba d0 b1 40 00       	mov    $0x40b1d0,%edx
  406ec9:	bf 54 90 40 00       	mov    $0x409054,%edi
  406ece:	8b 30                	mov    (%rax),%esi
  406ed0:	31 c0                	xor    %eax,%eax
  406ed2:	e8 69 c4 ff ff       	call   403340 <dlerror@plt+0xe80>
  406ed7:	eb e0                	jmp    406eb9 <dlerror@plt+0x49f9>
  406ed9:	0f 1f 80 00 00 00 00 	nopl   0x0(%rax)
  406ee0:	55                   	push   %rbp
  406ee1:	48 8b 2f             	mov    (%rdi),%rbp
  406ee4:	48 c7 07 00 00 00 00 	movq   $0x0,(%rdi)
  406eeb:	48 85 ed             	test   %rbp,%rbp
  406eee:	74 30                	je     406f20 <dlerror@plt+0x4a60>
  406ef0:	48 8b bd 50 30 00 00 	mov    0x3050(%rbp),%rdi
  406ef7:	e8 64 b1 ff ff       	call   402060 <free@plt>
  406efc:	48 8b bd 60 30 00 00 	mov    0x3060(%rbp),%rdi
  406f03:	e8 58 b1 ff ff       	call   402060 <free@plt>
  406f08:	48 8b bd 70 30 00 00 	mov    0x3070(%rbp),%rdi
  406f0f:	e8 4c b1 ff ff       	call   402060 <free@plt>
  406f14:	48 89 ef             	mov    %rbp,%rdi
  406f17:	5d                   	pop    %rbp
  406f18:	e9 43 b1 ff ff       	jmp    402060 <free@plt>
  406f1d:	0f 1f 00             	nopl   (%rax)
  406f20:	5d                   	pop    %rbp
  406f21:	c3                   	ret    
  406f22:	66 66 2e 0f 1f 84 00 	data16 cs nopw 0x0(%rax,%rax,1)
  406f29:	00 00 00 00 
  406f2d:	0f 1f 00             	nopl   (%rax)
  406f30:	41 57                	push   %r15
  406f32:	41 56                	push   %r14
  406f34:	49 89 ce             	mov    %rcx,%r14
  406f37:	41 55                	push   %r13
  406f39:	49 89 d5             	mov    %rdx,%r13
  406f3c:	41 54                	push   %r12
  406f3e:	41 89 f4             	mov    %esi,%r12d
  406f41:	55                   	push   %rbp
  406f42:	53                   	push   %rbx
  406f43:	48 89 fb             	mov    %rdi,%rbx
  406f46:	bf 40 00 00 00       	mov    $0x40,%edi
  406f4b:	48 83 ec 18          	sub    $0x18,%rsp
  406f4f:	c7 44 24 04 00 00 00 	movl   $0x0,0x4(%rsp)
  406f56:	00 
  406f57:	4c 8d 7c 24 08       	lea    0x8(%rsp),%r15
  406f5c:	48 c7 44 24 08 00 00 	movq   $0x0,0x8(%rsp)
  406f63:	00 00 
  406f65:	ff 15 0d c5 00 00    	call   *0xc50d(%rip)        # 413478 <stderr@GLIBC_2.2.5+0x41f0>
  406f6b:	48 89 c5             	mov    %rax,%rbp
  406f6e:	48 c7 00 d0 65 40 00 	movq   $0x4065d0,(%rax)
  406f75:	48 89 58 10          	mov    %rbx,0x10(%rax)
  406f79:	44 88 60 18          	mov    %r12b,0x18(%rax)
  406f7d:	4c 89 78 20          	mov    %r15,0x20(%rax)
  406f81:	48 8d 44 24 04       	lea    0x4(%rsp),%rax
  406f86:	4c 89 6d 38          	mov    %r13,0x38(%rbp)
  406f8a:	4c 8d 6b 08          	lea    0x8(%rbx),%r13
  406f8e:	48 89 45 28          	mov    %rax,0x28(%rbp)
  406f92:	4c 89 ef             	mov    %r13,%rdi
  406f95:	4c 89 75 30          	mov    %r14,0x30(%rbp)
  406f99:	ff 15 71 c5 00 00    	call   *0xc571(%rip)        # 413510 <stderr@GLIBC_2.2.5+0x4288>
  406f9f:	48 8b 7b 40          	mov    0x40(%rbx),%rdi
  406fa3:	31 d2                	xor    %edx,%edx
  406fa5:	48 89 ee             	mov    %rbp,%rsi
  406fa8:	ff 15 32 c5 00 00    	call   *0xc532(%rip)        # 4134e0 <stderr@GLIBC_2.2.5+0x4258>
  406fae:	48 8b 7b 40          	mov    0x40(%rbx),%rdi
  406fb2:	ff 15 20 c5 00 00    	call   *0xc520(%rip)        # 4134d8 <stderr@GLIBC_2.2.5+0x4250>
  406fb8:	45 84 e4             	test   %r12b,%r12b
  406fbb:	75 33                	jne    406ff0 <dlerror@plt+0x4b30>
  406fbd:	31 d2                	xor    %edx,%edx
  406fbf:	4c 89 ee             	mov    %r13,%rsi
  406fc2:	4c 89 ff             	mov    %r15,%rdi
  406fc5:	ff 15 1d c5 00 00    	call   *0xc51d(%rip)        # 4134e8 <stderr@GLIBC_2.2.5+0x4260>
  406fcb:	4c 89 ef             	mov    %r13,%rdi
  406fce:	ff 15 34 c5 00 00    	call   *0xc534(%rip)        # 413508 <stderr@GLIBC_2.2.5+0x4280>
  406fd4:	4c 89 ff             	mov    %r15,%rdi
  406fd7:	ff 15 1b c5 00 00    	call   *0xc51b(%rip)        # 4134f8 <stderr@GLIBC_2.2.5+0x4270>
  406fdd:	8b 44 24 04          	mov    0x4(%rsp),%eax
  406fe1:	48 83 c4 18          	add    $0x18,%rsp
  406fe5:	5b                   	pop    %rbx
  406fe6:	5d                   	pop    %rbp
  406fe7:	41 5c                	pop    %r12
  406fe9:	41 5d                	pop    %r13
  406feb:	41 5e                	pop    %r14
  406fed:	41 5f                	pop    %r15
  406fef:	c3                   	ret    
  406ff0:	4c 89 ef             	mov    %r13,%rdi
  406ff3:	ff 15 0f c5 00 00    	call   *0xc50f(%rip)        # 413508 <stderr@GLIBC_2.2.5+0x4280>
  406ff9:	eb e2                	jmp    406fdd <dlerror@plt+0x4b1d>
  406ffb:	0f 1f 44 00 00       	nopl   0x0(%rax,%rax,1)
  407000:	48 85 ff             	test   %rdi,%rdi
  407003:	0f 84 f7 00 00 00    	je     407100 <dlerror@plt+0x4c40>
  407009:	41 54                	push   %r12
  40700b:	55                   	push   %rbp
  40700c:	53                   	push   %rbx
  40700d:	80 bf 7c 30 00 00 00 	cmpb   $0x0,0x307c(%rdi)
  407014:	48 89 fb             	mov    %rdi,%rbx
  407017:	0f 84 94 00 00 00    	je     4070b1 <dlerror@plt+0x4bf1>
  40701d:	48 8d 6f 28          	lea    0x28(%rdi),%rbp
  407021:	48 89 ef             	mov    %rbp,%rdi
  407024:	ff 15 e6 c4 00 00    	call   *0xc4e6(%rip)        # 413510 <stderr@GLIBC_2.2.5+0x4288>
  40702a:	48 83 7b 38 00       	cmpq   $0x0,0x38(%rbx)
  40702f:	0f 84 bb 00 00 00    	je     4070f0 <dlerror@plt+0x4c30>
  407035:	c6 43 30 01          	movb   $0x1,0x30(%rbx)
  407039:	31 c9                	xor    %ecx,%ecx
  40703b:	31 d2                	xor    %edx,%edx
  40703d:	be 01 00 00 00       	mov    $0x1,%esi
  407042:	48 89 df             	mov    %rbx,%rdi
  407045:	4c 8d 63 20          	lea    0x20(%rbx),%r12
  407049:	e8 e2 fe ff ff       	call   406f30 <dlerror@plt+0x4a70>
  40704e:	31 d2                	xor    %edx,%edx
  407050:	48 89 ee             	mov    %rbp,%rsi
  407053:	4c 89 e7             	mov    %r12,%rdi
  407056:	ff 15 8c c4 00 00    	call   *0xc48c(%rip)        # 4134e8 <stderr@GLIBC_2.2.5+0x4260>
  40705c:	48 89 ef             	mov    %rbp,%rdi
  40705f:	ff 15 a3 c4 00 00    	call   *0xc4a3(%rip)        # 413508 <stderr@GLIBC_2.2.5+0x4280>
  407065:	4c 89 e7             	mov    %r12,%rdi
  407068:	ff 15 8a c4 00 00    	call   *0xc48a(%rip)        # 4134f8 <stderr@GLIBC_2.2.5+0x4270>
  40706e:	80 7b 48 00          	cmpb   $0x0,0x48(%rbx)
  407072:	74 11                	je     407085 <dlerror@plt+0x4bc5>
  407074:	48 8b 7b 40          	mov    0x40(%rbx),%rdi
  407078:	48 85 ff             	test   %rdi,%rdi
  40707b:	74 08                	je     407085 <dlerror@plt+0x4bc5>
  40707d:	31 f6                	xor    %esi,%esi
  40707f:	ff 15 93 c4 00 00    	call   *0xc493(%rip)        # 413518 <stderr@GLIBC_2.2.5+0x4290>
  407085:	48 89 df             	mov    %rbx,%rdi
  407088:	ff 15 72 c4 00 00    	call   *0xc472(%rip)        # 413500 <stderr@GLIBC_2.2.5+0x4278>
  40708e:	48 8d 7b 08          	lea    0x8(%rbx),%rdi
  407092:	ff 15 68 c4 00 00    	call   *0xc468(%rip)        # 413500 <stderr@GLIBC_2.2.5+0x4278>
  407098:	48 8d 7b 10          	lea    0x10(%rbx),%rdi
  40709c:	ff 15 5e c4 00 00    	call   *0xc45e(%rip)        # 413500 <stderr@GLIBC_2.2.5+0x4278>
  4070a2:	48 89 ef             	mov    %rbp,%rdi
  4070a5:	ff 15 55 c4 00 00    	call   *0xc455(%rip)        # 413500 <stderr@GLIBC_2.2.5+0x4278>
  4070ab:	ff 15 8f c4 00 00    	call   *0xc48f(%rip)        # 413540 <stderr@GLIBC_2.2.5+0x42b8>
  4070b1:	48 8b bb 88 30 00 00 	mov    0x3088(%rbx),%rdi
  4070b8:	48 85 ff             	test   %rdi,%rdi
  4070bb:	74 10                	je     4070cd <dlerror@plt+0x4c0d>
  4070bd:	e8 de 0f 00 00       	call   4080a0 <dlerror@plt+0x5be0>
  4070c2:	48 c7 83 88 30 00 00 	movq   $0x0,0x3088(%rbx)
  4070c9:	00 00 00 00 
  4070cd:	48 8b bb 80 30 00 00 	mov    0x3080(%rbx),%rdi
  4070d4:	48 85 ff             	test   %rdi,%rdi
  4070d7:	74 10                	je     4070e9 <dlerror@plt+0x4c29>
  4070d9:	e8 c2 0f 00 00       	call   4080a0 <dlerror@plt+0x5be0>
  4070de:	48 c7 83 80 30 00 00 	movq   $0x0,0x3080(%rbx)
  4070e5:	00 00 00 00 
  4070e9:	5b                   	pop    %rbx
  4070ea:	31 c0                	xor    %eax,%eax
  4070ec:	5d                   	pop    %rbp
  4070ed:	41 5c                	pop    %r12
  4070ef:	c3                   	ret    
  4070f0:	48 89 ef             	mov    %rbp,%rdi
  4070f3:	ff 15 0f c4 00 00    	call   *0xc40f(%rip)        # 413508 <stderr@GLIBC_2.2.5+0x4280>
  4070f9:	e9 70 ff ff ff       	jmp    40706e <dlerror@plt+0x4bae>
  4070fe:	66 90                	xchg   %ax,%ax
  407100:	31 c0                	xor    %eax,%eax
  407102:	c3                   	ret    
  407103:	66 66 2e 0f 1f 84 00 	data16 cs nopw 0x0(%rax,%rax,1)
  40710a:	00 00 00 00 
  40710e:	66 90                	xchg   %ax,%ax
  407110:	41 55                	push   %r13
  407112:	41 54                	push   %r12
  407114:	49 89 f4             	mov    %rsi,%r12
  407117:	55                   	push   %rbp
  407118:	48 89 fd             	mov    %rdi,%rbp
  40711b:	ff 15 ef c3 00 00    	call   *0xc3ef(%rip)        # 413510 <stderr@GLIBC_2.2.5+0x4288>
  407121:	80 bd 7c 30 00 00 00 	cmpb   $0x0,0x307c(%rbp)
  407128:	74 76                	je     4071a0 <dlerror@plt+0x4ce0>
  40712a:	4c 89 e7             	mov    %r12,%rdi
  40712d:	ff 15 1d c4 00 00    	call   *0xc41d(%rip)        # 413550 <stderr@GLIBC_2.2.5+0x42c8>
  407133:	c6 45 48 01          	movb   $0x1,0x48(%rbp)
  407137:	48 8d 7d 40          	lea    0x40(%rbp),%rdi
  40713b:	31 c9                	xor    %ecx,%ecx
  40713d:	41 b8 01 00 00 00    	mov    $0x1,%r8d
  407143:	48 89 ea             	mov    %rbp,%rdx
  407146:	be 80 66 40 00       	mov    $0x406680,%esi
  40714b:	ff 15 d7 c3 00 00    	call   *0xc3d7(%rip)        # 413528 <stderr@GLIBC_2.2.5+0x42a0>
  407151:	41 89 c4             	mov    %eax,%r12d
  407154:	85 c0                	test   %eax,%eax
  407156:	75 50                	jne    4071a8 <dlerror@plt+0x4ce8>
  407158:	4c 8d 6d 10          	lea    0x10(%rbp),%r13
  40715c:	4c 89 ef             	mov    %r13,%rdi
  40715f:	ff 15 ab c3 00 00    	call   *0xc3ab(%rip)        # 413510 <stderr@GLIBC_2.2.5+0x4288>
  407165:	48 89 ef             	mov    %rbp,%rdi
  407168:	48 83 c5 18          	add    $0x18,%rbp
  40716c:	ff 15 96 c3 00 00    	call   *0xc396(%rip)        # 413508 <stderr@GLIBC_2.2.5+0x4280>
  407172:	31 d2                	xor    %edx,%edx
  407174:	4c 89 ee             	mov    %r13,%rsi
  407177:	48 89 ef             	mov    %rbp,%rdi
  40717a:	ff 15 68 c3 00 00    	call   *0xc368(%rip)        # 4134e8 <stderr@GLIBC_2.2.5+0x4260>
  407180:	4c 89 ef             	mov    %r13,%rdi
  407183:	ff 15 7f c3 00 00    	call   *0xc37f(%rip)        # 413508 <stderr@GLIBC_2.2.5+0x4280>
  407189:	48 89 ef             	mov    %rbp,%rdi
  40718c:	ff 15 66 c3 00 00    	call   *0xc366(%rip)        # 4134f8 <stderr@GLIBC_2.2.5+0x4270>
  407192:	44 89 e0             	mov    %r12d,%eax
  407195:	5d                   	pop    %rbp
  407196:	41 5c                	pop    %r12
  407198:	41 5d                	pop    %r13
  40719a:	c3                   	ret    
  40719b:	0f 1f 44 00 00       	nopl   0x0(%rax,%rax,1)
  4071a0:	41 bc ff ff ff ff    	mov    $0xffffffff,%r12d
  4071a6:	eb ea                	jmp    407192 <dlerror@plt+0x4cd2>
  4071a8:	31 c0                	xor    %eax,%eax
  4071aa:	bf 00 b2 40 00       	mov    $0x40b200,%edi
  4071af:	41 bc ff ff ff ff    	mov    $0xffffffff,%r12d
  4071b5:	e8 e6 c0 ff ff       	call   4032a0 <dlerror@plt+0xde0>
  4071ba:	48 89 ef             	mov    %rbp,%rdi
  4071bd:	ff 15 45 c3 00 00    	call   *0xc345(%rip)        # 413508 <stderr@GLIBC_2.2.5+0x4280>
  4071c3:	48 89 ef             	mov    %rbp,%rdi
  4071c6:	e8 35 fe ff ff       	call   407000 <dlerror@plt+0x4b40>
  4071cb:	eb c5                	jmp    407192 <dlerror@plt+0x4cd2>
  4071cd:	0f 1f 00             	nopl   (%rax)
  4071d0:	48 89 f2             	mov    %rsi,%rdx
  4071d3:	b9 30 66 40 00       	mov    $0x406630,%ecx
  4071d8:	be 01 00 00 00       	mov    $0x1,%esi
  4071dd:	e9 4e fd ff ff       	jmp    406f30 <dlerror@plt+0x4a70>
  4071e2:	66 2e 0f 1f 84 00 00 	cs nopw 0x0(%rax,%rax,1)
  4071e9:	00 00 00 
  4071ec:	0f 1f 40 00          	nopl   0x0(%rax)
  4071f0:	41 54                	push   %r12
  4071f2:	49 89 f4             	mov    %rsi,%r12
  4071f5:	be 3e b2 40 00       	mov    $0x40b23e,%esi
  4071fa:	55                   	push   %rbp
  4071fb:	48 89 fd             	mov    %rdi,%rbp
  4071fe:	48 83 ec 08          	sub    $0x8,%rsp
  407202:	e8 99 b2 ff ff       	call   4024a0 <dlsym@plt>
  407207:	48 89 05 52 c3 00 00 	mov    %rax,0xc352(%rip)        # 413560 <stderr@GLIBC_2.2.5+0x42d8>
  40720e:	48 85 c0             	test   %rax,%rax
  407211:	0f 84 aa 03 00 00    	je     4075c1 <dlerror@plt+0x5101>
  407217:	be 62 b2 40 00       	mov    $0x40b262,%esi
  40721c:	48 89 ef             	mov    %rbp,%rdi
  40721f:	e8 7c b2 ff ff       	call   4024a0 <dlsym@plt>
  407224:	48 89 05 2d c3 00 00 	mov    %rax,0xc32d(%rip)        # 413558 <stderr@GLIBC_2.2.5+0x42d0>
  40722b:	48 85 c0             	test   %rax,%rax
  40722e:	0f 84 af 03 00 00    	je     4075e3 <dlerror@plt+0x5123>
  407234:	be 73 b2 40 00       	mov    $0x40b273,%esi
  407239:	48 89 ef             	mov    %rbp,%rdi
  40723c:	e8 5f b2 ff ff       	call   4024a0 <dlsym@plt>
  407241:	48 89 05 08 c3 00 00 	mov    %rax,0xc308(%rip)        # 413550 <stderr@GLIBC_2.2.5+0x42c8>
  407248:	48 85 c0             	test   %rax,%rax
  40724b:	0f 84 81 03 00 00    	je     4075d2 <dlerror@plt+0x5112>
  407251:	be 86 b2 40 00       	mov    $0x40b286,%esi
  407256:	48 89 ef             	mov    %rbp,%rdi
  407259:	e8 42 b2 ff ff       	call   4024a0 <dlsym@plt>
  40725e:	48 89 05 e3 c2 00 00 	mov    %rax,0xc2e3(%rip)        # 413548 <stderr@GLIBC_2.2.5+0x42c0>
  407265:	48 85 c0             	test   %rax,%rax
  407268:	0f 84 97 03 00 00    	je     407605 <dlerror@plt+0x5145>
  40726e:	be 95 b2 40 00       	mov    $0x40b295,%esi
  407273:	48 89 ef             	mov    %rbp,%rdi
  407276:	e8 25 b2 ff ff       	call   4024a0 <dlsym@plt>
  40727b:	48 89 05 be c2 00 00 	mov    %rax,0xc2be(%rip)        # 413540 <stderr@GLIBC_2.2.5+0x42b8>
  407282:	48 85 c0             	test   %rax,%rax
  407285:	0f 84 69 03 00 00    	je     4075f4 <dlerror@plt+0x5134>
  40728b:	be a2 b2 40 00       	mov    $0x40b2a2,%esi
  407290:	48 89 ef             	mov    %rbp,%rdi
  407293:	e8 08 b2 ff ff       	call   4024a0 <dlsym@plt>
  407298:	48 89 05 99 c2 00 00 	mov    %rax,0xc299(%rip)        # 413538 <stderr@GLIBC_2.2.5+0x42b0>
  40729f:	48 85 c0             	test   %rax,%rax
  4072a2:	0f 84 90 03 00 00    	je     407638 <dlerror@plt+0x5178>
  4072a8:	be b5 b2 40 00       	mov    $0x40b2b5,%esi
  4072ad:	48 89 ef             	mov    %rbp,%rdi
  4072b0:	e8 eb b1 ff ff       	call   4024a0 <dlsym@plt>
  4072b5:	48 89 05 74 c2 00 00 	mov    %rax,0xc274(%rip)        # 413530 <stderr@GLIBC_2.2.5+0x42a8>
  4072bc:	48 85 c0             	test   %rax,%rax
  4072bf:	0f 84 62 03 00 00    	je     407627 <dlerror@plt+0x5167>
  4072c5:	be c6 b2 40 00       	mov    $0x40b2c6,%esi
  4072ca:	48 89 ef             	mov    %rbp,%rdi
  4072cd:	e8 ce b1 ff ff       	call   4024a0 <dlsym@plt>
  4072d2:	48 89 05 4f c2 00 00 	mov    %rax,0xc24f(%rip)        # 413528 <stderr@GLIBC_2.2.5+0x42a0>
  4072d9:	48 85 c0             	test   %rax,%rax
  4072dc:	0f 84 34 03 00 00    	je     407616 <dlerror@plt+0x5156>
  4072e2:	be d7 b2 40 00       	mov    $0x40b2d7,%esi
  4072e7:	48 89 ef             	mov    %rbp,%rdi
  4072ea:	e8 b1 b1 ff ff       	call   4024a0 <dlsym@plt>
  4072ef:	48 89 05 2a c2 00 00 	mov    %rax,0xc22a(%rip)        # 413520 <stderr@GLIBC_2.2.5+0x4298>
  4072f6:	48 85 c0             	test   %rax,%rax
  4072f9:	0f 84 4d 03 00 00    	je     40764c <dlerror@plt+0x518c>
  4072ff:	be ec b2 40 00       	mov    $0x40b2ec,%esi
  407304:	48 89 ef             	mov    %rbp,%rdi
  407307:	e8 94 b1 ff ff       	call   4024a0 <dlsym@plt>
  40730c:	48 89 05 05 c2 00 00 	mov    %rax,0xc205(%rip)        # 413518 <stderr@GLIBC_2.2.5+0x4290>
  407313:	48 85 c0             	test   %rax,%rax
  407316:	0f 84 80 03 00 00    	je     40769c <dlerror@plt+0x51dc>
  40731c:	be fb b2 40 00       	mov    $0x40b2fb,%esi
  407321:	48 89 ef             	mov    %rbp,%rdi
  407324:	e8 77 b1 ff ff       	call   4024a0 <dlsym@plt>
  407329:	48 89 05 e0 c1 00 00 	mov    %rax,0xc1e0(%rip)        # 413510 <stderr@GLIBC_2.2.5+0x4288>
  407330:	48 85 c0             	test   %rax,%rax
  407333:	0f 84 4f 03 00 00    	je     407688 <dlerror@plt+0x51c8>
  407339:	be 09 b3 40 00       	mov    $0x40b309,%esi
  40733e:	48 89 ef             	mov    %rbp,%rdi
  407341:	e8 5a b1 ff ff       	call   4024a0 <dlsym@plt>
  407346:	48 89 05 bb c1 00 00 	mov    %rax,0xc1bb(%rip)        # 413508 <stderr@GLIBC_2.2.5+0x4280>
  40734d:	48 85 c0             	test   %rax,%rax
  407350:	0f 84 1e 03 00 00    	je     407674 <dlerror@plt+0x51b4>
  407356:	be 19 b3 40 00       	mov    $0x40b319,%esi
  40735b:	48 89 ef             	mov    %rbp,%rdi
  40735e:	e8 3d b1 ff ff       	call   4024a0 <dlsym@plt>
  407363:	48 89 05 96 c1 00 00 	mov    %rax,0xc196(%rip)        # 413500 <stderr@GLIBC_2.2.5+0x4278>
  40736a:	48 85 c0             	test   %rax,%rax
  40736d:	0f 84 ed 02 00 00    	je     407660 <dlerror@plt+0x51a0>
  407373:	be 2b b3 40 00       	mov    $0x40b32b,%esi
  407378:	48 89 ef             	mov    %rbp,%rdi
  40737b:	e8 20 b1 ff ff       	call   4024a0 <dlsym@plt>
  407380:	48 89 05 71 c1 00 00 	mov    %rax,0xc171(%rip)        # 4134f8 <stderr@GLIBC_2.2.5+0x4270>
  407387:	48 85 c0             	test   %rax,%rax
  40738a:	0f 84 5c 03 00 00    	je     4076ec <dlerror@plt+0x522c>
  407390:	be 41 b3 40 00       	mov    $0x40b341,%esi
  407395:	48 89 ef             	mov    %rbp,%rdi
  407398:	e8 03 b1 ff ff       	call   4024a0 <dlsym@plt>
  40739d:	48 89 05 4c c1 00 00 	mov    %rax,0xc14c(%rip)        # 4134f0 <stderr@GLIBC_2.2.5+0x4268>
  4073a4:	48 85 c0             	test   %rax,%rax
  4073a7:	0f 84 2b 03 00 00    	je     4076d8 <dlerror@plt+0x5218>
  4073ad:	be 55 b3 40 00       	mov    $0x40b355,%esi
  4073b2:	48 89 ef             	mov    %rbp,%rdi
  4073b5:	e8 e6 b0 ff ff       	call   4024a0 <dlsym@plt>
  4073ba:	48 89 05 27 c1 00 00 	mov    %rax,0xc127(%rip)        # 4134e8 <stderr@GLIBC_2.2.5+0x4260>
  4073c1:	48 85 c0             	test   %rax,%rax
  4073c4:	0f 84 fa 02 00 00    	je     4076c4 <dlerror@plt+0x5204>
  4073ca:	be 67 b3 40 00       	mov    $0x40b367,%esi
  4073cf:	48 89 ef             	mov    %rbp,%rdi
  4073d2:	e8 c9 b0 ff ff       	call   4024a0 <dlsym@plt>
  4073d7:	48 89 05 02 c1 00 00 	mov    %rax,0xc102(%rip)        # 4134e0 <stderr@GLIBC_2.2.5+0x4258>
  4073de:	48 85 c0             	test   %rax,%rax
  4073e1:	0f 84 c9 02 00 00    	je     4076b0 <dlerror@plt+0x51f0>
  4073e7:	be 7c b3 40 00       	mov    $0x40b37c,%esi
  4073ec:	48 89 ef             	mov    %rbp,%rdi
  4073ef:	e8 ac b0 ff ff       	call   4024a0 <dlsym@plt>
  4073f4:	48 89 05 dd c0 00 00 	mov    %rax,0xc0dd(%rip)        # 4134d8 <stderr@GLIBC_2.2.5+0x4250>
  4073fb:	48 85 c0             	test   %rax,%rax
  4073fe:	0f 84 fc 02 00 00    	je     407700 <dlerror@plt+0x5240>
  407404:	be 8c b3 40 00       	mov    $0x40b38c,%esi
  407409:	48 89 ef             	mov    %rbp,%rdi
  40740c:	e8 8f b0 ff ff       	call   4024a0 <dlsym@plt>
  407411:	48 89 05 b8 c0 00 00 	mov    %rax,0xc0b8(%rip)        # 4134d0 <stderr@GLIBC_2.2.5+0x4248>
  407418:	48 85 c0             	test   %rax,%rax
  40741b:	0f 84 f3 02 00 00    	je     407714 <dlerror@plt+0x5254>
  407421:	be b6 b3 40 00       	mov    $0x40b3b6,%esi
  407426:	48 89 ef             	mov    %rbp,%rdi
  407429:	e8 72 b0 ff ff       	call   4024a0 <dlsym@plt>
  40742e:	48 89 05 93 c0 00 00 	mov    %rax,0xc093(%rip)        # 4134c8 <stderr@GLIBC_2.2.5+0x4240>
  407435:	48 85 c0             	test   %rax,%rax
  407438:	0f 84 fe 02 00 00    	je     40773c <dlerror@plt+0x527c>
  40743e:	be e0 b3 40 00       	mov    $0x40b3e0,%esi
  407443:	48 89 ef             	mov    %rbp,%rdi
  407446:	e8 55 b0 ff ff       	call   4024a0 <dlsym@plt>
  40744b:	48 89 05 6e c0 00 00 	mov    %rax,0xc06e(%rip)        # 4134c0 <stderr@GLIBC_2.2.5+0x4238>
  407452:	48 85 c0             	test   %rax,%rax
  407455:	0f 84 cd 02 00 00    	je     407728 <dlerror@plt+0x5268>
  40745b:	be f5 b3 40 00       	mov    $0x40b3f5,%esi
  407460:	48 89 ef             	mov    %rbp,%rdi
  407463:	e8 38 b0 ff ff       	call   4024a0 <dlsym@plt>
  407468:	48 89 05 49 c0 00 00 	mov    %rax,0xc049(%rip)        # 4134b8 <stderr@GLIBC_2.2.5+0x4230>
  40746f:	48 85 c0             	test   %rax,%rax
  407472:	0f 84 00 03 00 00    	je     407778 <dlerror@plt+0x52b8>
  407478:	be 03 b4 40 00       	mov    $0x40b403,%esi
  40747d:	48 89 ef             	mov    %rbp,%rdi
  407480:	e8 1b b0 ff ff       	call   4024a0 <dlsym@plt>
  407485:	48 89 05 24 c0 00 00 	mov    %rax,0xc024(%rip)        # 4134b0 <stderr@GLIBC_2.2.5+0x4228>
  40748c:	48 85 c0             	test   %rax,%rax
  40748f:	0f 84 cf 02 00 00    	je     407764 <dlerror@plt+0x52a4>
  407495:	be 14 b4 40 00       	mov    $0x40b414,%esi
  40749a:	48 89 ef             	mov    %rbp,%rdi
  40749d:	e8 fe af ff ff       	call   4024a0 <dlsym@plt>
  4074a2:	48 89 05 ff bf 00 00 	mov    %rax,0xbfff(%rip)        # 4134a8 <stderr@GLIBC_2.2.5+0x4220>
  4074a9:	48 85 c0             	test   %rax,%rax
  4074ac:	0f 84 9e 02 00 00    	je     407750 <dlerror@plt+0x5290>
  4074b2:	be 28 b4 40 00       	mov    $0x40b428,%esi
  4074b7:	48 89 ef             	mov    %rbp,%rdi
  4074ba:	e8 e1 af ff ff       	call   4024a0 <dlsym@plt>
  4074bf:	48 89 05 da bf 00 00 	mov    %rax,0xbfda(%rip)        # 4134a0 <stderr@GLIBC_2.2.5+0x4218>
  4074c6:	48 85 c0             	test   %rax,%rax
  4074c9:	0f 84 bd 02 00 00    	je     40778c <dlerror@plt+0x52cc>
  4074cf:	be 36 b4 40 00       	mov    $0x40b436,%esi
  4074d4:	48 89 ef             	mov    %rbp,%rdi
  4074d7:	e8 c4 af ff ff       	call   4024a0 <dlsym@plt>
  4074dc:	48 89 05 b5 bf 00 00 	mov    %rax,0xbfb5(%rip)        # 413498 <stderr@GLIBC_2.2.5+0x4210>
  4074e3:	48 85 c0             	test   %rax,%rax
  4074e6:	0f 84 f0 02 00 00    	je     4077dc <dlerror@plt+0x531c>
  4074ec:	be 47 b4 40 00       	mov    $0x40b447,%esi
  4074f1:	48 89 ef             	mov    %rbp,%rdi
  4074f4:	e8 a7 af ff ff       	call   4024a0 <dlsym@plt>
  4074f9:	48 89 05 90 bf 00 00 	mov    %rax,0xbf90(%rip)        # 413490 <stderr@GLIBC_2.2.5+0x4208>
  407500:	48 85 c0             	test   %rax,%rax
  407503:	0f 84 bf 02 00 00    	je     4077c8 <dlerror@plt+0x5308>
  407509:	be 54 b4 40 00       	mov    $0x40b454,%esi
  40750e:	48 89 ef             	mov    %rbp,%rdi
  407511:	e8 8a af ff ff       	call   4024a0 <dlsym@plt>
  407516:	48 89 05 6b bf 00 00 	mov    %rax,0xbf6b(%rip)        # 413488 <stderr@GLIBC_2.2.5+0x4200>
  40751d:	48 85 c0             	test   %rax,%rax
  407520:	0f 84 8e 02 00 00    	je     4077b4 <dlerror@plt+0x52f4>
  407526:	be 7c b4 40 00       	mov    $0x40b47c,%esi
  40752b:	48 89 ef             	mov    %rbp,%rdi
  40752e:	e8 6d af ff ff       	call   4024a0 <dlsym@plt>
  407533:	48 89 05 46 bf 00 00 	mov    %rax,0xbf46(%rip)        # 413480 <stderr@GLIBC_2.2.5+0x41f8>
  40753a:	48 85 c0             	test   %rax,%rax
  40753d:	0f 84 5d 02 00 00    	je     4077a0 <dlerror@plt+0x52e0>
  407543:	be 89 b4 40 00       	mov    $0x40b489,%esi
  407548:	48 89 ef             	mov    %rbp,%rdi
  40754b:	e8 50 af ff ff       	call   4024a0 <dlsym@plt>
  407550:	48 89 05 21 bf 00 00 	mov    %rax,0xbf21(%rip)        # 413478 <stderr@GLIBC_2.2.5+0x41f0>
  407557:	48 85 c0             	test   %rax,%rax
  40755a:	0f 84 b8 02 00 00    	je     407818 <dlerror@plt+0x5358>
  407560:	be af b4 40 00       	mov    $0x40b4af,%esi
  407565:	48 89 ef             	mov    %rbp,%rdi
  407568:	e8 33 af ff ff       	call   4024a0 <dlsym@plt>
  40756d:	48 89 05 fc be 00 00 	mov    %rax,0xbefc(%rip)        # 413470 <stderr@GLIBC_2.2.5+0x41e8>
  407574:	48 85 c0             	test   %rax,%rax
  407577:	0f 84 87 02 00 00    	je     407804 <dlerror@plt+0x5344>
  40757d:	be d3 b4 40 00       	mov    $0x40b4d3,%esi
  407582:	4c 89 e7             	mov    %r12,%rdi
  407585:	e8 16 af ff ff       	call   4024a0 <dlsym@plt>
  40758a:	48 89 05 d7 be 00 00 	mov    %rax,0xbed7(%rip)        # 413468 <stderr@GLIBC_2.2.5+0x41e0>
  407591:	48 85 c0             	test   %rax,%rax
  407594:	0f 84 56 02 00 00    	je     4077f0 <dlerror@plt+0x5330>
  40759a:	be f5 b4 40 00       	mov    $0x40b4f5,%esi
  40759f:	4c 89 e7             	mov    %r12,%rdi
  4075a2:	e8 f9 ae ff ff       	call   4024a0 <dlsym@plt>
  4075a7:	48 89 05 b2 be 00 00 	mov    %rax,0xbeb2(%rip)        # 413460 <stderr@GLIBC_2.2.5+0x41d8>
  4075ae:	48 85 c0             	test   %rax,%rax
  4075b1:	0f 84 75 02 00 00    	je     40782c <dlerror@plt+0x536c>
  4075b7:	31 c0                	xor    %eax,%eax
  4075b9:	48 83 c4 08          	add    $0x8,%rsp
  4075bd:	5d                   	pop    %rbp
  4075be:	41 5c                	pop    %r12
  4075c0:	c3                   	ret    
  4075c1:	bf 47 b2 40 00       	mov    $0x40b247,%edi
  4075c6:	e8 d5 bc ff ff       	call   4032a0 <dlerror@plt+0xde0>
  4075cb:	b8 ff ff ff ff       	mov    $0xffffffff,%eax
  4075d0:	eb e7                	jmp    4075b9 <dlerror@plt+0x50f9>
  4075d2:	bf 38 b5 40 00       	mov    $0x40b538,%edi
  4075d7:	e8 c4 bc ff ff       	call   4032a0 <dlerror@plt+0xde0>
  4075dc:	b8 ff ff ff ff       	mov    $0xffffffff,%eax
  4075e1:	eb d6                	jmp    4075b9 <dlerror@plt+0x50f9>
  4075e3:	bf 10 b5 40 00       	mov    $0x40b510,%edi
  4075e8:	e8 b3 bc ff ff       	call   4032a0 <dlerror@plt+0xde0>
  4075ed:	b8 ff ff ff ff       	mov    $0xffffffff,%eax
  4075f2:	eb c5                	jmp    4075b9 <dlerror@plt+0x50f9>
  4075f4:	bf 88 b5 40 00       	mov    $0x40b588,%edi
  4075f9:	e8 a2 bc ff ff       	call   4032a0 <dlerror@plt+0xde0>
  4075fe:	b8 ff ff ff ff       	mov    $0xffffffff,%eax
  407603:	eb b4                	jmp    4075b9 <dlerror@plt+0x50f9>
  407605:	bf 60 b5 40 00       	mov    $0x40b560,%edi
  40760a:	e8 91 bc ff ff       	call   4032a0 <dlerror@plt+0xde0>
  40760f:	b8 ff ff ff ff       	mov    $0xffffffff,%eax
  407614:	eb a3                	jmp    4075b9 <dlerror@plt+0x50f9>
  407616:	bf f8 b5 40 00       	mov    $0x40b5f8,%edi
  40761b:	e8 80 bc ff ff       	call   4032a0 <dlerror@plt+0xde0>
  407620:	b8 ff ff ff ff       	mov    $0xffffffff,%eax
  407625:	eb 92                	jmp    4075b9 <dlerror@plt+0x50f9>
  407627:	bf d0 b5 40 00       	mov    $0x40b5d0,%edi
  40762c:	e8 6f bc ff ff       	call   4032a0 <dlerror@plt+0xde0>
  407631:	b8 ff ff ff ff       	mov    $0xffffffff,%eax
  407636:	eb 81                	jmp    4075b9 <dlerror@plt+0x50f9>
  407638:	bf a8 b5 40 00       	mov    $0x40b5a8,%edi
  40763d:	e8 5e bc ff ff       	call   4032a0 <dlerror@plt+0xde0>
  407642:	b8 ff ff ff ff       	mov    $0xffffffff,%eax
  407647:	e9 6d ff ff ff       	jmp    4075b9 <dlerror@plt+0x50f9>
  40764c:	bf 20 b6 40 00       	mov    $0x40b620,%edi
  407651:	e8 4a bc ff ff       	call   4032a0 <dlerror@plt+0xde0>
  407656:	b8 ff ff ff ff       	mov    $0xffffffff,%eax
  40765b:	e9 59 ff ff ff       	jmp    4075b9 <dlerror@plt+0x50f9>
  407660:	bf b8 b6 40 00       	mov    $0x40b6b8,%edi
  407665:	e8 36 bc ff ff       	call   4032a0 <dlerror@plt+0xde0>
  40766a:	b8 ff ff ff ff       	mov    $0xffffffff,%eax
  40766f:	e9 45 ff ff ff       	jmp    4075b9 <dlerror@plt+0x50f9>
  407674:	bf 90 b6 40 00       	mov    $0x40b690,%edi
  407679:	e8 22 bc ff ff       	call   4032a0 <dlerror@plt+0xde0>
  40767e:	b8 ff ff ff ff       	mov    $0xffffffff,%eax
  407683:	e9 31 ff ff ff       	jmp    4075b9 <dlerror@plt+0x50f9>
  407688:	bf 70 b6 40 00       	mov    $0x40b670,%edi
  40768d:	e8 0e bc ff ff       	call   4032a0 <dlerror@plt+0xde0>
  407692:	b8 ff ff ff ff       	mov    $0xffffffff,%eax
  407697:	e9 1d ff ff ff       	jmp    4075b9 <dlerror@plt+0x50f9>
  40769c:	bf 48 b6 40 00       	mov    $0x40b648,%edi
  4076a1:	e8 fa bb ff ff       	call   4032a0 <dlerror@plt+0xde0>
  4076a6:	b8 ff ff ff ff       	mov    $0xffffffff,%eax
  4076ab:	e9 09 ff ff ff       	jmp    4075b9 <dlerror@plt+0x50f9>
  4076b0:	bf 58 b7 40 00       	mov    $0x40b758,%edi
  4076b5:	e8 e6 bb ff ff       	call   4032a0 <dlerror@plt+0xde0>
  4076ba:	b8 ff ff ff ff       	mov    $0xffffffff,%eax
  4076bf:	e9 f5 fe ff ff       	jmp    4075b9 <dlerror@plt+0x50f9>
  4076c4:	bf 30 b7 40 00       	mov    $0x40b730,%edi
  4076c9:	e8 d2 bb ff ff       	call   4032a0 <dlerror@plt+0xde0>
  4076ce:	b8 ff ff ff ff       	mov    $0xffffffff,%eax
  4076d3:	e9 e1 fe ff ff       	jmp    4075b9 <dlerror@plt+0x50f9>
  4076d8:	bf 08 b7 40 00       	mov    $0x40b708,%edi
  4076dd:	e8 be bb ff ff       	call   4032a0 <dlerror@plt+0xde0>
  4076e2:	b8 ff ff ff ff       	mov    $0xffffffff,%eax
  4076e7:	e9 cd fe ff ff       	jmp    4075b9 <dlerror@plt+0x50f9>
  4076ec:	bf e0 b6 40 00       	mov    $0x40b6e0,%edi
  4076f1:	e8 aa bb ff ff       	call   4032a0 <dlerror@plt+0xde0>
  4076f6:	b8 ff ff ff ff       	mov    $0xffffffff,%eax
  4076fb:	e9 b9 fe ff ff       	jmp    4075b9 <dlerror@plt+0x50f9>
  407700:	bf 80 b7 40 00       	mov    $0x40b780,%edi
  407705:	e8 96 bb ff ff       	call   4032a0 <dlerror@plt+0xde0>
  40770a:	b8 ff ff ff ff       	mov    $0xffffffff,%eax
  40770f:	e9 a5 fe ff ff       	jmp    4075b9 <dlerror@plt+0x50f9>
  407714:	bf 98 b3 40 00       	mov    $0x40b398,%edi
  407719:	e8 82 bb ff ff       	call   4032a0 <dlerror@plt+0xde0>
  40771e:	b8 ff ff ff ff       	mov    $0xffffffff,%eax
  407723:	e9 91 fe ff ff       	jmp    4075b9 <dlerror@plt+0x50f9>
  407728:	bf a8 b7 40 00       	mov    $0x40b7a8,%edi
  40772d:	e8 6e bb ff ff       	call   4032a0 <dlerror@plt+0xde0>
  407732:	b8 ff ff ff ff       	mov    $0xffffffff,%eax
  407737:	e9 7d fe ff ff       	jmp    4075b9 <dlerror@plt+0x50f9>
  40773c:	bf c2 b3 40 00       	mov    $0x40b3c2,%edi
  407741:	e8 5a bb ff ff       	call   4032a0 <dlerror@plt+0xde0>
  407746:	b8 ff ff ff ff       	mov    $0xffffffff,%eax
  40774b:	e9 69 fe ff ff       	jmp    4075b9 <dlerror@plt+0x50f9>
  407750:	bf 18 b8 40 00       	mov    $0x40b818,%edi
  407755:	e8 46 bb ff ff       	call   4032a0 <dlerror@plt+0xde0>
  40775a:	b8 ff ff ff ff       	mov    $0xffffffff,%eax
  40775f:	e9 55 fe ff ff       	jmp    4075b9 <dlerror@plt+0x50f9>
  407764:	bf f0 b7 40 00       	mov    $0x40b7f0,%edi
  407769:	e8 32 bb ff ff       	call   4032a0 <dlerror@plt+0xde0>
  40776e:	b8 ff ff ff ff       	mov    $0xffffffff,%eax
  407773:	e9 41 fe ff ff       	jmp    4075b9 <dlerror@plt+0x50f9>
  407778:	bf d0 b7 40 00       	mov    $0x40b7d0,%edi
  40777d:	e8 1e bb ff ff       	call   4032a0 <dlerror@plt+0xde0>
  407782:	b8 ff ff ff ff       	mov    $0xffffffff,%eax
  407787:	e9 2d fe ff ff       	jmp    4075b9 <dlerror@plt+0x50f9>
  40778c:	bf 40 b8 40 00       	mov    $0x40b840,%edi
  407791:	e8 0a bb ff ff       	call   4032a0 <dlerror@plt+0xde0>
  407796:	b8 ff ff ff ff       	mov    $0xffffffff,%eax
  40779b:	e9 19 fe ff ff       	jmp    4075b9 <dlerror@plt+0x50f9>
  4077a0:	bf a8 b8 40 00       	mov    $0x40b8a8,%edi
  4077a5:	e8 f6 ba ff ff       	call   4032a0 <dlerror@plt+0xde0>
  4077aa:	b8 ff ff ff ff       	mov    $0xffffffff,%eax
  4077af:	e9 05 fe ff ff       	jmp    4075b9 <dlerror@plt+0x50f9>
  4077b4:	bf 5f b4 40 00       	mov    $0x40b45f,%edi
  4077b9:	e8 e2 ba ff ff       	call   4032a0 <dlerror@plt+0xde0>
  4077be:	b8 ff ff ff ff       	mov    $0xffffffff,%eax
  4077c3:	e9 f1 fd ff ff       	jmp    4075b9 <dlerror@plt+0x50f9>
  4077c8:	bf 88 b8 40 00       	mov    $0x40b888,%edi
  4077cd:	e8 ce ba ff ff       	call   4032a0 <dlerror@plt+0xde0>
  4077d2:	b8 ff ff ff ff       	mov    $0xffffffff,%eax
  4077d7:	e9 dd fd ff ff       	jmp    4075b9 <dlerror@plt+0x50f9>
  4077dc:	bf 60 b8 40 00       	mov    $0x40b860,%edi
  4077e1:	e8 ba ba ff ff       	call   4032a0 <dlerror@plt+0xde0>
  4077e6:	b8 ff ff ff ff       	mov    $0xffffffff,%eax
  4077eb:	e9 c9 fd ff ff       	jmp    4075b9 <dlerror@plt+0x50f9>
  4077f0:	bf db b4 40 00       	mov    $0x40b4db,%edi
  4077f5:	e8 a6 ba ff ff       	call   4032a0 <dlerror@plt+0xde0>
  4077fa:	b8 ff ff ff ff       	mov    $0xffffffff,%eax
  4077ff:	e9 b5 fd ff ff       	jmp    4075b9 <dlerror@plt+0x50f9>
  407804:	bf b8 b4 40 00       	mov    $0x40b4b8,%edi
  407809:	e8 92 ba ff ff       	call   4032a0 <dlerror@plt+0xde0>
  40780e:	b8 ff ff ff ff       	mov    $0xffffffff,%eax
  407813:	e9 a1 fd ff ff       	jmp    4075b9 <dlerror@plt+0x50f9>
  407818:	bf 93 b4 40 00       	mov    $0x40b493,%edi
  40781d:	e8 7e ba ff ff       	call   4032a0 <dlerror@plt+0xde0>
  407822:	b8 ff ff ff ff       	mov    $0xffffffff,%eax
  407827:	e9 8d fd ff ff       	jmp    4075b9 <dlerror@plt+0x50f9>
  40782c:	bf c8 b8 40 00       	mov    $0x40b8c8,%edi
  407831:	e8 6a ba ff ff       	call   4032a0 <dlerror@plt+0xde0>
  407836:	b8 ff ff ff ff       	mov    $0xffffffff,%eax
  40783b:	e9 79 fd ff ff       	jmp    4075b9 <dlerror@plt+0x50f9>
  407840:	41 55                	push   %r13
  407842:	48 89 f7             	mov    %rsi,%rdi
  407845:	41 54                	push   %r12
  407847:	55                   	push   %rbp
  407848:	48 89 d5             	mov    %rdx,%rbp
  40784b:	53                   	push   %rbx
  40784c:	48 89 f3             	mov    %rsi,%rbx
  40784f:	48 81 ec 08 10 00 00 	sub    $0x1008,%rsp
  407856:	e8 25 a9 ff ff       	call   402180 <strlen@plt>
  40785b:	48 89 ef             	mov    %rbp,%rdi
  40785e:	49 89 c4             	mov    %rax,%r12
  407861:	e8 1a a9 ff ff       	call   402180 <strlen@plt>
  407866:	49 8d 44 04 01       	lea    0x1(%r12,%rax,1),%rax
  40786b:	48 3d ff 0f 00 00    	cmp    $0xfff,%rax
  407871:	0f 87 ba 00 00 00    	ja     407931 <dlerror@plt+0x5471>
  407877:	48 83 ec 08          	sub    $0x8,%rsp
  40787b:	49 89 d9             	mov    %rbx,%r9
  40787e:	41 b8 ef b8 40 00    	mov    $0x40b8ef,%r8d
  407884:	31 c0                	xor    %eax,%eax
  407886:	6a 2f                	push   $0x2f
  407888:	b9 00 10 00 00       	mov    $0x1000,%ecx
  40788d:	ba 01 00 00 00       	mov    $0x1,%edx
  407892:	be 00 10 00 00       	mov    $0x1000,%esi
  407897:	41 bd 00 10 00 00    	mov    $0x1000,%r13d
  40789d:	48 8d 7c 24 10       	lea    0x10(%rsp),%rdi
  4078a2:	e8 99 a7 ff ff       	call   402040 <__snprintf_chk@plt>
  4078a7:	be 2f 00 00 00       	mov    $0x2f,%esi
  4078ac:	48 89 ef             	mov    %rbp,%rdi
  4078af:	4c 63 e0             	movslq %eax,%r12
  4078b2:	e8 e9 a8 ff ff       	call   4021a0 <strchr@plt>
  4078b7:	5e                   	pop    %rsi
  4078b8:	5f                   	pop    %rdi
  4078b9:	4d 29 e5             	sub    %r12,%r13
  4078bc:	48 89 c3             	mov    %rax,%rbx
  4078bf:	49 01 e4             	add    %rsp,%r12
  4078c2:	48 85 c0             	test   %rax,%rax
  4078c5:	75 1f                	jne    4078e6 <dlerror@plt+0x5426>
  4078c7:	eb 7f                	jmp    407948 <dlerror@plt+0x5488>
  4078c9:	0f 1f 80 00 00 00 00 	nopl   0x0(%rax)
  4078d0:	48 8d 7b 01          	lea    0x1(%rbx),%rdi
  4078d4:	be 2f 00 00 00       	mov    $0x2f,%esi
  4078d9:	e8 c2 a8 ff ff       	call   4021a0 <strchr@plt>
  4078de:	48 89 c3             	mov    %rax,%rbx
  4078e1:	48 85 c0             	test   %rax,%rax
  4078e4:	74 62                	je     407948 <dlerror@plt+0x5488>
  4078e6:	48 83 ec 08          	sub    $0x8,%rsp
  4078ea:	41 89 d9             	mov    %ebx,%r9d
  4078ed:	48 c7 c1 ff ff ff ff 	mov    $0xffffffffffffffff,%rcx
  4078f4:	31 c0                	xor    %eax,%eax
  4078f6:	55                   	push   %rbp
  4078f7:	ba 01 00 00 00       	mov    $0x1,%edx
  4078fc:	41 29 e9             	sub    %ebp,%r9d
  4078ff:	41 b8 f4 b8 40 00    	mov    $0x40b8f4,%r8d
  407905:	4c 89 ee             	mov    %r13,%rsi
  407908:	4c 89 e7             	mov    %r12,%rdi
  40790b:	e8 30 a7 ff ff       	call   402040 <__snprintf_chk@plt>
  407910:	48 8d 7c 24 10       	lea    0x10(%rsp),%rdi
  407915:	e8 36 d0 ff ff       	call   404950 <dlerror@plt+0x2490>
  40791a:	5a                   	pop    %rdx
  40791b:	59                   	pop    %rcx
  40791c:	85 c0                	test   %eax,%eax
  40791e:	75 b0                	jne    4078d0 <dlerror@plt+0x5410>
  407920:	be c0 01 00 00       	mov    $0x1c0,%esi
  407925:	48 89 e7             	mov    %rsp,%rdi
  407928:	e8 b3 a7 ff ff       	call   4020e0 <mkdir@plt>
  40792d:	85 c0                	test   %eax,%eax
  40792f:	79 9f                	jns    4078d0 <dlerror@plt+0x5410>
  407931:	48 81 c4 08 10 00 00 	add    $0x1008,%rsp
  407938:	b8 ff ff ff ff       	mov    $0xffffffff,%eax
  40793d:	5b                   	pop    %rbx
  40793e:	5d                   	pop    %rbp
  40793f:	41 5c                	pop    %r12
  407941:	41 5d                	pop    %r13
  407943:	c3                   	ret    
  407944:	0f 1f 40 00          	nopl   0x0(%rax)
  407948:	48 81 c4 08 10 00 00 	add    $0x1008,%rsp
  40794f:	31 c0                	xor    %eax,%eax
  407951:	5b                   	pop    %rbx
  407952:	5d                   	pop    %rbp
  407953:	41 5c                	pop    %r12
  407955:	41 5d                	pop    %r13
  407957:	c3                   	ret    
  407958:	0f 1f 84 00 00 00 00 	nopl   0x0(%rax,%rax,1)
  40795f:	00 
  407960:	41 56                	push   %r14
  407962:	41 55                	push   %r13
  407964:	49 89 fd             	mov    %rdi,%r13
  407967:	41 54                	push   %r12
  407969:	55                   	push   %rbp
  40796a:	48 89 f5             	mov    %rsi,%rbp
  40796d:	be 1d 90 40 00       	mov    $0x40901d,%esi
  407972:	48 81 ec 98 10 00 00 	sub    $0x1098,%rsp
  407979:	e8 a2 aa ff ff       	call   402420 <fopen@plt>
  40797e:	48 85 c0             	test   %rax,%rax
  407981:	0f 84 08 01 00 00    	je     407a8f <dlerror@plt+0x55cf>
  407987:	48 89 ef             	mov    %rbp,%rdi
  40798a:	be 2c 90 40 00       	mov    $0x40902c,%esi
  40798f:	49 89 c4             	mov    %rax,%r12
  407992:	e8 89 aa ff ff       	call   402420 <fopen@plt>
  407997:	48 89 c5             	mov    %rax,%rbp
  40799a:	48 85 c0             	test   %rax,%rax
  40799d:	75 55                	jne    4079f4 <dlerror@plt+0x5534>
  40799f:	e9 f3 00 00 00       	jmp    407a97 <dlerror@plt+0x55d7>
  4079a4:	0f 1f 40 00          	nopl   0x0(%rax)
  4079a8:	ba 00 10 00 00       	mov    $0x1000,%edx
  4079ad:	4c 89 e1             	mov    %r12,%rcx
  4079b0:	be 01 00 00 00       	mov    $0x1,%esi
  4079b5:	48 8d bc 24 90 00 00 	lea    0x90(%rsp),%rdi
  4079bc:	00 
  4079bd:	e8 3e a7 ff ff       	call   402100 <fread@plt>
  4079c2:	48 89 c2             	mov    %rax,%rdx
  4079c5:	48 85 c0             	test   %rax,%rax
  4079c8:	0f 84 a2 00 00 00    	je     407a70 <dlerror@plt+0x55b0>
  4079ce:	48 89 e9             	mov    %rbp,%rcx
  4079d1:	be 01 00 00 00       	mov    $0x1,%esi
  4079d6:	48 8d bc 24 90 00 00 	lea    0x90(%rsp),%rdi
  4079dd:	00 
  4079de:	e8 9d aa ff ff       	call   402480 <fwrite@plt>
  4079e3:	48 85 c0             	test   %rax,%rax
  4079e6:	74 78                	je     407a60 <dlerror@plt+0x55a0>
  4079e8:	48 89 ef             	mov    %rbp,%rdi
  4079eb:	e8 00 a7 ff ff       	call   4020f0 <ferror@plt>
  4079f0:	85 c0                	test   %eax,%eax
  4079f2:	75 6c                	jne    407a60 <dlerror@plt+0x55a0>
  4079f4:	4c 89 e7             	mov    %r12,%rdi
  4079f7:	e8 84 a8 ff ff       	call   402280 <feof@plt>
  4079fc:	85 c0                	test   %eax,%eax
  4079fe:	74 a8                	je     4079a8 <dlerror@plt+0x54e8>
  407a00:	45 31 f6             	xor    %r14d,%r14d
  407a03:	4c 89 ee             	mov    %r13,%rsi
  407a06:	48 89 e2             	mov    %rsp,%rdx
  407a09:	bf 01 00 00 00       	mov    $0x1,%edi
  407a0e:	41 bd 80 01 00 00    	mov    $0x180,%r13d
  407a14:	e8 07 a9 ff ff       	call   402320 <__xstat@plt>
  407a19:	85 c0                	test   %eax,%eax
  407a1b:	75 0c                	jne    407a29 <dlerror@plt+0x5569>
  407a1d:	44 8b 6c 24 18       	mov    0x18(%rsp),%r13d
  407a22:	41 81 cd 80 01 00 00 	or     $0x180,%r13d
  407a29:	48 89 ef             	mov    %rbp,%rdi
  407a2c:	e8 df a8 ff ff       	call   402310 <fileno@plt>
  407a31:	44 89 ee             	mov    %r13d,%esi
  407a34:	89 c7                	mov    %eax,%edi
  407a36:	e8 95 a9 ff ff       	call   4023d0 <fchmod@plt>
  407a3b:	4c 89 e7             	mov    %r12,%rdi
  407a3e:	e8 0d a7 ff ff       	call   402150 <fclose@plt>
  407a43:	48 89 ef             	mov    %rbp,%rdi
  407a46:	e8 05 a7 ff ff       	call   402150 <fclose@plt>
  407a4b:	48 81 c4 98 10 00 00 	add    $0x1098,%rsp
  407a52:	44 89 f0             	mov    %r14d,%eax
  407a55:	5d                   	pop    %rbp
  407a56:	41 5c                	pop    %r12
  407a58:	41 5d                	pop    %r13
  407a5a:	41 5e                	pop    %r14
  407a5c:	c3                   	ret    
  407a5d:	0f 1f 00             	nopl   (%rax)
  407a60:	48 89 ef             	mov    %rbp,%rdi
  407a63:	41 be ff ff ff ff    	mov    $0xffffffff,%r14d
  407a69:	e8 32 a8 ff ff       	call   4022a0 <clearerr@plt>
  407a6e:	eb 93                	jmp    407a03 <dlerror@plt+0x5543>
  407a70:	4c 89 e7             	mov    %r12,%rdi
  407a73:	e8 78 a6 ff ff       	call   4020f0 <ferror@plt>
  407a78:	85 c0                	test   %eax,%eax
  407a7a:	74 84                	je     407a00 <dlerror@plt+0x5540>
  407a7c:	4c 89 e7             	mov    %r12,%rdi
  407a7f:	41 be ff ff ff ff    	mov    $0xffffffff,%r14d
  407a85:	e8 16 a8 ff ff       	call   4022a0 <clearerr@plt>
  407a8a:	e9 74 ff ff ff       	jmp    407a03 <dlerror@plt+0x5543>
  407a8f:	41 be ff ff ff ff    	mov    $0xffffffff,%r14d
  407a95:	eb b4                	jmp    407a4b <dlerror@plt+0x558b>
  407a97:	4c 89 e7             	mov    %r12,%rdi
  407a9a:	41 be ff ff ff ff    	mov    $0xffffffff,%r14d
  407aa0:	e8 ab a6 ff ff       	call   402150 <fclose@plt>
  407aa5:	eb a4                	jmp    407a4b <dlerror@plt+0x558b>
  407aa7:	66 0f 1f 84 00 00 00 	nopw   0x0(%rax,%rax,1)
  407aae:	00 00 
  407ab0:	41 57                	push   %r15
  407ab2:	41 56                	push   %r14
  407ab4:	41 55                	push   %r13
  407ab6:	49 89 fd             	mov    %rdi,%r13
  407ab9:	bf 00 20 00 00       	mov    $0x2000,%edi
  407abe:	41 54                	push   %r12
  407ac0:	49 89 f4             	mov    %rsi,%r12
  407ac3:	55                   	push   %rbp
  407ac4:	53                   	push   %rbx
  407ac5:	48 89 d3             	mov    %rdx,%rbx
  407ac8:	48 83 ec 18          	sub    $0x18,%rsp
  407acc:	e8 7f a8 ff ff       	call   402350 <malloc@plt>
  407ad1:	48 89 c5             	mov    %rax,%rbp
  407ad4:	48 85 c0             	test   %rax,%rax
  407ad7:	0f 84 cb 00 00 00    	je     407ba8 <dlerror@plt+0x56e8>
  407add:	31 f6                	xor    %esi,%esi
  407adf:	ba 02 00 00 00       	mov    $0x2,%edx
  407ae4:	4c 89 ef             	mov    %r13,%rdi
  407ae7:	e8 24 a9 ff ff       	call   402410 <fseeko@plt>
  407aec:	85 c0                	test   %eax,%eax
  407aee:	0f 88 b4 00 00 00    	js     407ba8 <dlerror@plt+0x56e8>
  407af4:	4c 89 ef             	mov    %r13,%rdi
  407af7:	e8 c4 a5 ff ff       	call   4020c0 <ftello@plt>
  407afc:	48 39 d8             	cmp    %rbx,%rax
  407aff:	0f 82 a3 00 00 00    	jb     407ba8 <dlerror@plt+0x56e8>
  407b05:	48 3d 00 20 00 00    	cmp    $0x2000,%rax
  407b0b:	b9 00 20 00 00       	mov    $0x2000,%ecx
  407b10:	48 0f 43 c8          	cmovae %rax,%rcx
  407b14:	48 8d b1 00 e0 ff ff 	lea    -0x2000(%rcx),%rsi
  407b1b:	48 89 4c 24 08       	mov    %rcx,0x8(%rsp)
  407b20:	48 29 f0             	sub    %rsi,%rax
  407b23:	48 89 34 24          	mov    %rsi,(%rsp)
  407b27:	49 89 c7             	mov    %rax,%r15
  407b2a:	48 39 c3             	cmp    %rax,%rbx
  407b2d:	77 79                	ja     407ba8 <dlerror@plt+0x56e8>
  407b2f:	31 d2                	xor    %edx,%edx
  407b31:	4c 89 ef             	mov    %r13,%rdi
  407b34:	e8 d7 a8 ff ff       	call   402410 <fseeko@plt>
  407b39:	85 c0                	test   %eax,%eax
  407b3b:	78 6b                	js     407ba8 <dlerror@plt+0x56e8>
  407b3d:	4d 89 e8             	mov    %r13,%r8
  407b40:	4c 89 f9             	mov    %r15,%rcx
  407b43:	ba 01 00 00 00       	mov    $0x1,%edx
  407b48:	be 00 20 00 00       	mov    $0x2000,%esi
  407b4d:	48 89 ef             	mov    %rbp,%rdi
  407b50:	e8 9b a8 ff ff       	call   4023f0 <__fread_chk@plt>
  407b55:	49 39 c7             	cmp    %rax,%r15
  407b58:	75 4e                	jne    407ba8 <dlerror@plt+0x56e8>
  407b5a:	4c 89 f8             	mov    %r15,%rax
  407b5d:	48 29 d8             	sub    %rbx,%rax
  407b60:	4c 8d 78 01          	lea    0x1(%rax),%r15
  407b64:	eb 25                	jmp    407b8b <dlerror@plt+0x56cb>
  407b66:	66 2e 0f 1f 84 00 00 	cs nopw 0x0(%rax,%rax,1)
  407b6d:	00 00 00 
  407b70:	4d 8d 77 ff          	lea    -0x1(%r15),%r14
  407b74:	48 89 da             	mov    %rbx,%rdx
  407b77:	4c 89 e6             	mov    %r12,%rsi
  407b7a:	4a 8d 7c 35 00       	lea    0x0(%rbp,%r14,1),%rdi
  407b7f:	e8 bc a6 ff ff       	call   402240 <memcmp@plt>
  407b84:	85 c0                	test   %eax,%eax
  407b86:	74 40                	je     407bc8 <dlerror@plt+0x5708>
  407b88:	4d 89 f7             	mov    %r14,%r15
  407b8b:	4d 85 ff             	test   %r15,%r15
  407b8e:	75 e0                	jne    407b70 <dlerror@plt+0x56b0>
  407b90:	48 8b 0c 24          	mov    (%rsp),%rcx
  407b94:	48 8d 44 19 ff       	lea    -0x1(%rcx,%rbx,1),%rax
  407b99:	48 85 c9             	test   %rcx,%rcx
  407b9c:	0f 85 63 ff ff ff    	jne    407b05 <dlerror@plt+0x5645>
  407ba2:	66 0f 1f 44 00 00    	nopw   0x0(%rax,%rax,1)
  407ba8:	45 31 e4             	xor    %r12d,%r12d
  407bab:	48 89 ef             	mov    %rbp,%rdi
  407bae:	e8 ad a4 ff ff       	call   402060 <free@plt>
  407bb3:	48 83 c4 18          	add    $0x18,%rsp
  407bb7:	4c 89 e0             	mov    %r12,%rax
  407bba:	5b                   	pop    %rbx
  407bbb:	5d                   	pop    %rbp
  407bbc:	41 5c                	pop    %r12
  407bbe:	41 5d                	pop    %r13
  407bc0:	41 5e                	pop    %r14
  407bc2:	41 5f                	pop    %r15
  407bc4:	c3                   	ret    
  407bc5:	0f 1f 00             	nopl   (%rax)
  407bc8:	48 8b 44 24 08       	mov    0x8(%rsp),%rax
  407bcd:	4e 8d a4 38 ff df ff 	lea    -0x2001(%rax,%r15,1),%r12
  407bd4:	ff 
  407bd5:	eb d4                	jmp    407bab <dlerror@plt+0x56eb>
  407bd7:	66 0f 1f 84 00 00 00 	nopw   0x0(%rax,%rax,1)
  407bde:	00 00 
  407be0:	c3                   	ret    
  407be1:	66 66 2e 0f 1f 84 00 	data16 cs nopw 0x0(%rax,%rax,1)
  407be8:	00 00 00 00 
  407bec:	0f 1f 40 00          	nopl   0x0(%rax)
  407bf0:	55                   	push   %rbp
  407bf1:	48 89 fd             	mov    %rdi,%rbp
  407bf4:	53                   	push   %rbx
  407bf5:	48 81 ec 08 10 00 00 	sub    $0x1008,%rsp
  407bfc:	e8 7f a5 ff ff       	call   402180 <strlen@plt>
  407c01:	48 3d ff 0f 00 00    	cmp    $0xfff,%rax
  407c07:	0f 87 93 00 00 00    	ja     407ca0 <dlerror@plt+0x57e0>
  407c0d:	be 2f 00 00 00       	mov    $0x2f,%esi
  407c12:	48 89 ef             	mov    %rbp,%rdi
  407c15:	e8 86 a5 ff ff       	call   4021a0 <strchr@plt>
  407c1a:	48 89 c3             	mov    %rax,%rbx
  407c1d:	48 85 c0             	test   %rax,%rax
  407c20:	74 5d                	je     407c7f <dlerror@plt+0x57bf>
  407c22:	66 0f 1f 44 00 00    	nopw   0x0(%rax,%rax,1)
  407c28:	49 89 d9             	mov    %rbx,%r9
  407c2b:	49 29 e9             	sub    %rbp,%r9
  407c2e:	39 eb                	cmp    %ebp,%ebx
  407c30:	74 37                	je     407c69 <dlerror@plt+0x57a9>
  407c32:	48 83 ec 08          	sub    $0x8,%rsp
  407c36:	ba 01 00 00 00       	mov    $0x1,%edx
  407c3b:	b9 00 10 00 00       	mov    $0x1000,%ecx
  407c40:	31 c0                	xor    %eax,%eax
  407c42:	55                   	push   %rbp
  407c43:	41 b8 f4 b8 40 00    	mov    $0x40b8f4,%r8d
  407c49:	be 00 10 00 00       	mov    $0x1000,%esi
  407c4e:	48 8d 7c 24 10       	lea    0x10(%rsp),%rdi
  407c53:	e8 e8 a3 ff ff       	call   402040 <__snprintf_chk@plt>
  407c58:	48 8d 7c 24 10       	lea    0x10(%rsp),%rdi
  407c5d:	be ff 01 00 00       	mov    $0x1ff,%esi
  407c62:	e8 79 a4 ff ff       	call   4020e0 <mkdir@plt>
  407c67:	58                   	pop    %rax
  407c68:	5a                   	pop    %rdx
  407c69:	48 8d 7b 01          	lea    0x1(%rbx),%rdi
  407c6d:	be 2f 00 00 00       	mov    $0x2f,%esi
  407c72:	e8 29 a5 ff ff       	call   4021a0 <strchr@plt>
  407c77:	48 89 c3             	mov    %rax,%rbx
  407c7a:	48 85 c0             	test   %rax,%rax
  407c7d:	75 a9                	jne    407c28 <dlerror@plt+0x5768>
  407c7f:	be ff 01 00 00       	mov    $0x1ff,%esi
  407c84:	48 89 ef             	mov    %rbp,%rdi
  407c87:	e8 54 a4 ff ff       	call   4020e0 <mkdir@plt>
  407c8c:	31 f6                	xor    %esi,%esi
  407c8e:	48 89 ef             	mov    %rbp,%rdi
  407c91:	e8 1a a6 ff ff       	call   4022b0 <realpath@plt>
  407c96:	48 81 c4 08 10 00 00 	add    $0x1008,%rsp
  407c9d:	5b                   	pop    %rbx
  407c9e:	5d                   	pop    %rbp
  407c9f:	c3                   	ret    
  407ca0:	31 c0                	xor    %eax,%eax
  407ca2:	bf 08 b9 40 00       	mov    $0x40b908,%edi
  407ca7:	e8 54 b5 ff ff       	call   403200 <dlerror@plt+0xd40>
  407cac:	31 c0                	xor    %eax,%eax
  407cae:	eb e6                	jmp    407c96 <dlerror@plt+0x57d6>
  407cb0:	55                   	push   %rbp
  407cb1:	48 89 fd             	mov    %rdi,%rbp
  407cb4:	e8 c7 a4 ff ff       	call   402180 <strlen@plt>
  407cb9:	31 c9                	xor    %ecx,%ecx
  407cbb:	0f b6 54 05 ff       	movzbl -0x1(%rbp,%rax,1),%edx
  407cc0:	80 fa 2f             	cmp    $0x2f,%dl
  407cc3:	0f 95 c1             	setne  %cl
  407cc6:	48 8d 4c 08 0a       	lea    0xa(%rax,%rcx,1),%rcx
  407ccb:	48 81 f9 ff 0f 00 00 	cmp    $0xfff,%rcx
  407cd2:	77 4c                	ja     407d20 <dlerror@plt+0x5860>
  407cd4:	80 fa 2f             	cmp    $0x2f,%dl
  407cd7:	74 0e                	je     407ce7 <dlerror@plt+0x5827>
  407cd9:	b9 2f 00 00 00       	mov    $0x2f,%ecx
  407cde:	66 89 4c 05 00       	mov    %cx,0x0(%rbp,%rax,1)
  407ce3:	48 83 c0 01          	add    $0x1,%rax
  407ce7:	48 01 e8             	add    %rbp,%rax
  407cea:	ba 58 58 00 00       	mov    $0x5858,%edx
  407cef:	48 89 ef             	mov    %rbp,%rdi
  407cf2:	48 be 5f 4d 45 49 58 	movabs $0x5858585849454d5f,%rsi
  407cf9:	58 58 58 
  407cfc:	48 89 30             	mov    %rsi,(%rax)
  407cff:	66 89 50 08          	mov    %dx,0x8(%rax)
  407d03:	c6 40 0a 00          	movb   $0x0,0xa(%rax)
  407d07:	e8 b4 a6 ff ff       	call   4023c0 <mkdtemp@plt>
  407d0c:	5d                   	pop    %rbp
  407d0d:	48 85 c0             	test   %rax,%rax
  407d10:	0f 94 c0             	sete   %al
  407d13:	0f b6 c0             	movzbl %al,%eax
  407d16:	f7 d8                	neg    %eax
  407d18:	c3                   	ret    
  407d19:	0f 1f 80 00 00 00 00 	nopl   0x0(%rax)
  407d20:	b8 ff ff ff ff       	mov    $0xffffffff,%eax
  407d25:	5d                   	pop    %rbp
  407d26:	c3                   	ret    
  407d27:	66 0f 1f 84 00 00 00 	nopw   0x0(%rax,%rax,1)
  407d2e:	00 00 
  407d30:	48 8b 05 39 75 00 00 	mov    0x7539(%rip),%rax        # 40f270 <dlerror@plt+0xcdb0>
  407d37:	89 fe                	mov    %edi,%esi
  407d39:	8b b8 44 40 00 00    	mov    0x4044(%rax),%edi
  407d3f:	e9 ac a5 ff ff       	jmp    4022f0 <kill@plt>
  407d44:	66 66 2e 0f 1f 84 00 	data16 cs nopw 0x0(%rax,%rax,1)
  407d4b:	00 00 00 00 
  407d4f:	90                   	nop
  407d50:	48 83 ec 08          	sub    $0x8,%rsp
  407d54:	e8 d7 a2 ff ff       	call   402030 <getenv@plt>
  407d59:	48 85 c0             	test   %rax,%rax
  407d5c:	74 12                	je     407d70 <dlerror@plt+0x58b0>
  407d5e:	80 38 00             	cmpb   $0x0,(%rax)
  407d61:	48 89 c7             	mov    %rax,%rdi
  407d64:	74 0a                	je     407d70 <dlerror@plt+0x58b0>
  407d66:	48 83 c4 08          	add    $0x8,%rsp
  407d6a:	e9 b1 a4 ff ff       	jmp    402220 <__strdup@plt>
  407d6f:	90                   	nop
  407d70:	31 c0                	xor    %eax,%eax
  407d72:	48 83 c4 08          	add    $0x8,%rsp
  407d76:	c3                   	ret    
  407d77:	66 0f 1f 84 00 00 00 	nopw   0x0(%rax,%rax,1)
  407d7e:	00 00 
  407d80:	ba 01 00 00 00       	mov    $0x1,%edx
  407d85:	e9 a6 a3 ff ff       	jmp    402130 <setenv@plt>
  407d8a:	66 0f 1f 44 00 00    	nopw   0x0(%rax,%rax,1)
  407d90:	e9 ab a6 ff ff       	jmp    402440 <unsetenv@plt>
  407d95:	66 66 2e 0f 1f 84 00 	data16 cs nopw 0x0(%rax,%rax,1)
  407d9c:	00 00 00 00 
  407da0:	41 55                	push   %r13
  407da2:	41 54                	push   %r12
  407da4:	55                   	push   %rbp
  407da5:	48 89 fd             	mov    %rdi,%rbp
  407da8:	53                   	push   %rbx
  407da9:	48 83 ec 08          	sub    $0x8,%rsp
  407dad:	48 8b bf 50 40 00 00 	mov    0x4050(%rdi),%rdi
  407db4:	48 85 ff             	test   %rdi,%rdi
  407db7:	74 57                	je     407e10 <dlerror@plt+0x5950>
  407db9:	e8 32 fe ff ff       	call   407bf0 <dlerror@plt+0x5730>
  407dbe:	49 89 c4             	mov    %rax,%r12
  407dc1:	48 85 c0             	test   %rax,%rax
  407dc4:	0f 84 4d 01 00 00    	je     407f17 <dlerror@plt+0x5a57>
  407dca:	48 81 c5 32 20 00 00 	add    $0x2032,%rbp
  407dd1:	48 89 c1             	mov    %rax,%rcx
  407dd4:	ba 66 bb 40 00       	mov    $0x40bb66,%edx
  407dd9:	31 c0                	xor    %eax,%eax
  407ddb:	48 89 ef             	mov    %rbp,%rdi
  407dde:	be 00 10 00 00       	mov    $0x1000,%esi
  407de3:	e8 d8 a3 ff ff       	call   4021c0 <snprintf@plt>
  407de8:	4c 89 e7             	mov    %r12,%rdi
  407deb:	89 c3                	mov    %eax,%ebx
  407ded:	e8 6e a2 ff ff       	call   402060 <free@plt>
  407df2:	81 fb ff 0f 00 00    	cmp    $0xfff,%ebx
  407df8:	0f 8f 06 01 00 00    	jg     407f04 <dlerror@plt+0x5a44>
  407dfe:	48 83 c4 08          	add    $0x8,%rsp
  407e02:	48 89 ef             	mov    %rbp,%rdi
  407e05:	5b                   	pop    %rbx
  407e06:	5d                   	pop    %rbp
  407e07:	41 5c                	pop    %r12
  407e09:	41 5d                	pop    %r13
  407e0b:	e9 a0 fe ff ff       	jmp    407cb0 <dlerror@plt+0x57f0>
  407e10:	bf 37 bb 40 00       	mov    $0x40bb37,%edi
  407e15:	48 8d 9d 32 20 00 00 	lea    0x2032(%rbp),%rbx
  407e1c:	bd c0 bb 40 00       	mov    $0x40bbc0,%ebp
  407e21:	e8 0a a2 ff ff       	call   402030 <getenv@plt>
  407e26:	48 89 c7             	mov    %rax,%rdi
  407e29:	48 85 c0             	test   %rax,%rax
  407e2c:	74 4d                	je     407e7b <dlerror@plt+0x59bb>
  407e2e:	80 38 00             	cmpb   $0x0,(%rax)
  407e31:	74 48                	je     407e7b <dlerror@plt+0x59bb>
  407e33:	e8 e8 a3 ff ff       	call   402220 <__strdup@plt>
  407e38:	49 89 c5             	mov    %rax,%r13
  407e3b:	48 85 c0             	test   %rax,%rax
  407e3e:	74 3b                	je     407e7b <dlerror@plt+0x59bb>
  407e40:	48 89 c1             	mov    %rax,%rcx
  407e43:	48 89 df             	mov    %rbx,%rdi
  407e46:	31 c0                	xor    %eax,%eax
  407e48:	ba 66 bb 40 00       	mov    $0x40bb66,%edx
  407e4d:	be 00 10 00 00       	mov    $0x1000,%esi
  407e52:	e8 69 a3 ff ff       	call   4021c0 <snprintf@plt>
  407e57:	4c 89 ef             	mov    %r13,%rdi
  407e5a:	41 89 c4             	mov    %eax,%r12d
  407e5d:	e8 fe a1 ff ff       	call   402060 <free@plt>
  407e62:	41 81 fc ff 0f 00 00 	cmp    $0xfff,%r12d
  407e69:	7f 10                	jg     407e7b <dlerror@plt+0x59bb>
  407e6b:	48 89 df             	mov    %rbx,%rdi
  407e6e:	e8 3d fe ff ff       	call   407cb0 <dlerror@plt+0x57f0>
  407e73:	85 c0                	test   %eax,%eax
  407e75:	0f 84 85 00 00 00    	je     407f00 <dlerror@plt+0x5a40>
  407e7b:	48 83 c5 08          	add    $0x8,%rbp
  407e7f:	48 81 fd d8 bb 40 00 	cmp    $0x40bbd8,%rbp
  407e86:	74 28                	je     407eb0 <dlerror@plt+0x59f0>
  407e88:	48 8b 7d 00          	mov    0x0(%rbp),%rdi
  407e8c:	e8 9f a1 ff ff       	call   402030 <getenv@plt>
  407e91:	48 89 c7             	mov    %rax,%rdi
  407e94:	48 85 c0             	test   %rax,%rax
  407e97:	75 95                	jne    407e2e <dlerror@plt+0x596e>
  407e99:	48 83 c5 08          	add    $0x8,%rbp
  407e9d:	48 81 fd d8 bb 40 00 	cmp    $0x40bbd8,%rbp
  407ea4:	75 e2                	jne    407e88 <dlerror@plt+0x59c8>
  407ea6:	66 2e 0f 1f 84 00 00 	cs nopw 0x0(%rax,%rax,1)
  407ead:	00 00 00 
  407eb0:	bd a0 bb 40 00       	mov    $0x40bba0,%ebp
  407eb5:	b9 7c bb 40 00       	mov    $0x40bb7c,%ecx
  407eba:	48 89 df             	mov    %rbx,%rdi
  407ebd:	31 c0                	xor    %eax,%eax
  407ebf:	ba 66 bb 40 00       	mov    $0x40bb66,%edx
  407ec4:	be 00 10 00 00       	mov    $0x1000,%esi
  407ec9:	e8 f2 a2 ff ff       	call   4021c0 <snprintf@plt>
  407ece:	48 89 df             	mov    %rbx,%rdi
  407ed1:	e8 da fd ff ff       	call   407cb0 <dlerror@plt+0x57f0>
  407ed6:	85 c0                	test   %eax,%eax
  407ed8:	74 26                	je     407f00 <dlerror@plt+0x5a40>
  407eda:	48 83 c5 08          	add    $0x8,%rbp
  407ede:	48 81 fd b8 bb 40 00 	cmp    $0x40bbb8,%rbp
  407ee5:	74 09                	je     407ef0 <dlerror@plt+0x5a30>
  407ee7:	48 8b 4d 00          	mov    0x0(%rbp),%rcx
  407eeb:	eb cd                	jmp    407eba <dlerror@plt+0x59fa>
  407eed:	0f 1f 00             	nopl   (%rax)
  407ef0:	b8 ff ff ff ff       	mov    $0xffffffff,%eax
  407ef5:	48 83 c4 08          	add    $0x8,%rsp
  407ef9:	5b                   	pop    %rbx
  407efa:	5d                   	pop    %rbp
  407efb:	41 5c                	pop    %r12
  407efd:	41 5d                	pop    %r13
  407eff:	c3                   	ret    
  407f00:	31 c0                	xor    %eax,%eax
  407f02:	eb f1                	jmp    407ef5 <dlerror@plt+0x5a35>
  407f04:	31 c0                	xor    %eax,%eax
  407f06:	bf 88 b9 40 00       	mov    $0x40b988,%edi
  407f0b:	e8 f0 b2 ff ff       	call   403200 <dlerror@plt+0xd40>
  407f10:	b8 ff ff ff ff       	mov    $0xffffffff,%eax
  407f15:	eb de                	jmp    407ef5 <dlerror@plt+0x5a35>
  407f17:	48 8b b5 50 40 00 00 	mov    0x4050(%rbp),%rsi
  407f1e:	31 c0                	xor    %eax,%eax
  407f20:	bf 48 b9 40 00       	mov    $0x40b948,%edi
  407f25:	e8 d6 b2 ff ff       	call   403200 <dlerror@plt+0xd40>
  407f2a:	b8 ff ff ff ff       	mov    $0xffffffff,%eax
  407f2f:	eb c4                	jmp    407ef5 <dlerror@plt+0x5a35>
  407f31:	66 66 2e 0f 1f 84 00 	data16 cs nopw 0x0(%rax,%rax,1)
  407f38:	00 00 00 00 
  407f3c:	0f 1f 40 00          	nopl   0x0(%rax)
  407f40:	41 56                	push   %r14
  407f42:	49 89 f9             	mov    %rdi,%r9
  407f45:	ba 01 00 00 00       	mov    $0x1,%edx
  407f4a:	41 b8 ef b8 40 00    	mov    $0x40b8ef,%r8d
  407f50:	41 55                	push   %r13
  407f52:	b9 00 10 00 00       	mov    $0x1000,%ecx
  407f57:	be 00 10 00 00       	mov    $0x1000,%esi
  407f5c:	31 c0                	xor    %eax,%eax
  407f5e:	41 54                	push   %r12
  407f60:	49 89 fc             	mov    %rdi,%r12
  407f63:	55                   	push   %rbp
  407f64:	53                   	push   %rbx
  407f65:	48 81 ec 98 10 00 00 	sub    $0x1098,%rsp
  407f6c:	6a 2f                	push   $0x2f
  407f6e:	48 8d bc 24 a0 00 00 	lea    0xa0(%rsp),%rdi
  407f75:	00 
  407f76:	e8 c5 a0 ff ff       	call   402040 <__snprintf_chk@plt>
  407f7b:	48 63 d8             	movslq %eax,%rbx
  407f7e:	58                   	pop    %rax
  407f7f:	5a                   	pop    %rdx
  407f80:	81 fb ff 0f 00 00    	cmp    $0xfff,%ebx
  407f86:	0f 8f fb 00 00 00    	jg     408087 <dlerror@plt+0x5bc7>
  407f8c:	4c 89 e7             	mov    %r12,%rdi
  407f8f:	41 bd 00 10 00 00    	mov    $0x1000,%r13d
  407f95:	e8 c6 a1 ff ff       	call   402160 <opendir@plt>
  407f9a:	41 29 dd             	sub    %ebx,%r13d
  407f9d:	48 89 c5             	mov    %rax,%rbp
  407fa0:	48 85 c0             	test   %rax,%rax
  407fa3:	0f 84 de 00 00 00    	je     408087 <dlerror@plt+0x5bc7>
  407fa9:	48 89 c7             	mov    %rax,%rdi
  407fac:	e8 7f a3 ff ff       	call   402330 <readdir@plt>
  407fb1:	48 85 c0             	test   %rax,%rax
  407fb4:	74 77                	je     40802d <dlerror@plt+0x5b6d>
  407fb6:	48 8d b4 24 90 00 00 	lea    0x90(%rsp),%rsi
  407fbd:	00 
  407fbe:	4d 63 f5             	movslq %r13d,%r14
  407fc1:	48 01 f3             	add    %rsi,%rbx
  407fc4:	80 78 13 2e          	cmpb   $0x2e,0x13(%rax)
  407fc8:	0f 84 82 00 00 00    	je     408050 <dlerror@plt+0x5b90>
  407fce:	48 8d 48 13          	lea    0x13(%rax),%rcx
  407fd2:	ba 66 bb 40 00       	mov    $0x40bb66,%edx
  407fd7:	31 c0                	xor    %eax,%eax
  407fd9:	4c 89 f6             	mov    %r14,%rsi
  407fdc:	48 89 df             	mov    %rbx,%rdi
  407fdf:	e8 dc a1 ff ff       	call   4021c0 <snprintf@plt>
  407fe4:	41 39 c5             	cmp    %eax,%r13d
  407fe7:	7e 37                	jle    408020 <dlerror@plt+0x5b60>
  407fe9:	48 89 e2             	mov    %rsp,%rdx
  407fec:	48 8d b4 24 90 00 00 	lea    0x90(%rsp),%rsi
  407ff3:	00 
  407ff4:	bf 01 00 00 00       	mov    $0x1,%edi
  407ff9:	e8 92 a1 ff ff       	call   402190 <__lxstat@plt>
  407ffe:	85 c0                	test   %eax,%eax
  408000:	75 1e                	jne    408020 <dlerror@plt+0x5b60>
  408002:	8b 44 24 18          	mov    0x18(%rsp),%eax
  408006:	48 8d bc 24 90 00 00 	lea    0x90(%rsp),%rdi
  40800d:	00 
  40800e:	25 00 f0 00 00       	and    $0xf000,%eax
  408013:	3d 00 40 00 00       	cmp    $0x4000,%eax
  408018:	74 66                	je     408080 <dlerror@plt+0x5bc0>
  40801a:	e8 61 a0 ff ff       	call   402080 <unlink@plt>
  40801f:	90                   	nop
  408020:	48 89 ef             	mov    %rbp,%rdi
  408023:	e8 08 a3 ff ff       	call   402330 <readdir@plt>
  408028:	48 85 c0             	test   %rax,%rax
  40802b:	75 97                	jne    407fc4 <dlerror@plt+0x5b04>
  40802d:	48 89 ef             	mov    %rbp,%rdi
  408030:	e8 db a1 ff ff       	call   402210 <closedir@plt>
  408035:	4c 89 e7             	mov    %r12,%rdi
  408038:	e8 33 a1 ff ff       	call   402170 <rmdir@plt>
  40803d:	48 81 c4 90 10 00 00 	add    $0x1090,%rsp
  408044:	5b                   	pop    %rbx
  408045:	5d                   	pop    %rbp
  408046:	41 5c                	pop    %r12
  408048:	41 5d                	pop    %r13
  40804a:	41 5e                	pop    %r14
  40804c:	c3                   	ret    
  40804d:	0f 1f 00             	nopl   (%rax)
  408050:	0f b6 50 14          	movzbl 0x14(%rax),%edx
  408054:	85 d2                	test   %edx,%edx
  408056:	74 c8                	je     408020 <dlerror@plt+0x5b60>
  408058:	83 fa 2e             	cmp    $0x2e,%edx
  40805b:	0f 85 6d ff ff ff    	jne    407fce <dlerror@plt+0x5b0e>
  408061:	80 78 15 00          	cmpb   $0x0,0x15(%rax)
  408065:	0f 85 63 ff ff ff    	jne    407fce <dlerror@plt+0x5b0e>
  40806b:	48 89 ef             	mov    %rbp,%rdi
  40806e:	e8 bd a2 ff ff       	call   402330 <readdir@plt>
  408073:	48 85 c0             	test   %rax,%rax
  408076:	0f 85 48 ff ff ff    	jne    407fc4 <dlerror@plt+0x5b04>
  40807c:	eb af                	jmp    40802d <dlerror@plt+0x5b6d>
  40807e:	66 90                	xchg   %ax,%ax
  408080:	e8 bb fe ff ff       	call   407f40 <dlerror@plt+0x5a80>
  408085:	eb 99                	jmp    408020 <dlerror@plt+0x5b60>
  408087:	b8 ff ff ff ff       	mov    $0xffffffff,%eax
  40808c:	eb af                	jmp    40803d <dlerror@plt+0x5b7d>
  40808e:	66 90                	xchg   %ax,%ax
  408090:	be 02 01 00 00       	mov    $0x102,%esi
  408095:	e9 a6 a2 ff ff       	jmp    402340 <dlopen@plt>
  40809a:	66 0f 1f 44 00 00    	nopw   0x0(%rax,%rax,1)
  4080a0:	e9 fb a2 ff ff       	jmp    4023a0 <dlclose@plt>
  4080a5:	66 66 2e 0f 1f 84 00 	data16 cs nopw 0x0(%rax,%rax,1)
  4080ac:	00 00 00 00 
  4080b0:	41 56                	push   %r14
  4080b2:	41 55                	push   %r13
  4080b4:	49 89 fd             	mov    %rdi,%r13
  4080b7:	bf 3e bb 40 00       	mov    $0x40bb3e,%edi
  4080bc:	41 54                	push   %r12
  4080be:	55                   	push   %rbp
  4080bf:	48 83 ec 08          	sub    $0x8,%rsp
  4080c3:	e8 68 9f ff ff       	call   402030 <getenv@plt>
  4080c8:	48 85 c0             	test   %rax,%rax
  4080cb:	0f 84 bf 00 00 00    	je     408190 <dlerror@plt+0x5cd0>
  4080d1:	80 38 00             	cmpb   $0x0,(%rax)
  4080d4:	48 89 c7             	mov    %rax,%rdi
  4080d7:	0f 84 b3 00 00 00    	je     408190 <dlerror@plt+0x5cd0>
  4080dd:	e8 3e a1 ff ff       	call   402220 <__strdup@plt>
  4080e2:	49 89 c4             	mov    %rax,%r12
  4080e5:	48 85 c0             	test   %rax,%rax
  4080e8:	0f 84 a2 00 00 00    	je     408190 <dlerror@plt+0x5cd0>
  4080ee:	ba 01 00 00 00       	mov    $0x1,%edx
  4080f3:	48 89 c6             	mov    %rax,%rsi
  4080f6:	bf 4e bb 40 00       	mov    $0x40bb4e,%edi
  4080fb:	e8 30 a0 ff ff       	call   402130 <setenv@plt>
  408100:	4c 89 e7             	mov    %r12,%rdi
  408103:	e8 78 a0 ff ff       	call   402180 <strlen@plt>
  408108:	4c 89 ef             	mov    %r13,%rdi
  40810b:	48 89 c5             	mov    %rax,%rbp
  40810e:	e8 6d a0 ff ff       	call   402180 <strlen@plt>
  408113:	44 8d 74 05 02       	lea    0x2(%rbp,%rax,1),%r14d
  408118:	4d 63 f6             	movslq %r14d,%r14
  40811b:	4c 89 f7             	mov    %r14,%rdi
  40811e:	e8 2d a2 ff ff       	call   402350 <malloc@plt>
  408123:	48 89 c5             	mov    %rax,%rbp
  408126:	48 85 c0             	test   %rax,%rax
  408129:	0f 84 7e 00 00 00    	je     4081ad <dlerror@plt+0x5ced>
  40812f:	48 83 ec 08          	sub    $0x8,%rsp
  408133:	4d 89 e9             	mov    %r13,%r9
  408136:	41 b8 63 bb 40 00    	mov    $0x40bb63,%r8d
  40813c:	48 89 c7             	mov    %rax,%rdi
  40813f:	41 54                	push   %r12
  408141:	48 c7 c1 ff ff ff ff 	mov    $0xffffffffffffffff,%rcx
  408148:	ba 01 00 00 00       	mov    $0x1,%edx
  40814d:	31 c0                	xor    %eax,%eax
  40814f:	4c 89 f6             	mov    %r14,%rsi
  408152:	e8 e9 9e ff ff       	call   402040 <__snprintf_chk@plt>
  408157:	ba 01 00 00 00       	mov    $0x1,%edx
  40815c:	48 89 ee             	mov    %rbp,%rsi
  40815f:	bf 3e bb 40 00       	mov    $0x40bb3e,%edi
  408164:	e8 c7 9f ff ff       	call   402130 <setenv@plt>
  408169:	48 89 ef             	mov    %rbp,%rdi
  40816c:	41 89 c5             	mov    %eax,%r13d
  40816f:	e8 ec 9e ff ff       	call   402060 <free@plt>
  408174:	58                   	pop    %rax
  408175:	5a                   	pop    %rdx
  408176:	4c 89 e7             	mov    %r12,%rdi
  408179:	e8 e2 9e ff ff       	call   402060 <free@plt>
  40817e:	48 83 c4 08          	add    $0x8,%rsp
  408182:	44 89 e8             	mov    %r13d,%eax
  408185:	5d                   	pop    %rbp
  408186:	41 5c                	pop    %r12
  408188:	41 5d                	pop    %r13
  40818a:	41 5e                	pop    %r14
  40818c:	c3                   	ret    
  40818d:	0f 1f 00             	nopl   (%rax)
  408190:	48 83 c4 08          	add    $0x8,%rsp
  408194:	4c 89 ee             	mov    %r13,%rsi
  408197:	ba 01 00 00 00       	mov    $0x1,%edx
  40819c:	bf 3e bb 40 00       	mov    $0x40bb3e,%edi
  4081a1:	5d                   	pop    %rbp
  4081a2:	41 5c                	pop    %r12
  4081a4:	41 5d                	pop    %r13
  4081a6:	41 5e                	pop    %r14
  4081a8:	e9 83 9f ff ff       	jmp    402130 <setenv@plt>
  4081ad:	41 83 cd ff          	or     $0xffffffff,%r13d
  4081b1:	eb c3                	jmp    408176 <dlerror@plt+0x5cb6>
  4081b3:	66 66 2e 0f 1f 84 00 	data16 cs nopw 0x0(%rax,%rax,1)
  4081ba:	00 00 00 00 
  4081be:	66 90                	xchg   %ax,%ax
  4081c0:	41 56                	push   %r14
  4081c2:	41 55                	push   %r13
  4081c4:	41 54                	push   %r12
  4081c6:	49 89 fc             	mov    %rdi,%r12
  4081c9:	55                   	push   %rbp
  4081ca:	53                   	push   %rbx
  4081cb:	48 83 ec 30          	sub    $0x30,%rsp
  4081cf:	c7 44 24 0c 00 00 00 	movl   $0x0,0xc(%rsp)
  4081d6:	00 
  4081d7:	e8 d4 a2 ff ff       	call   4024b0 <fork@plt>
  4081dc:	85 c0                	test   %eax,%eax
  4081de:	0f 88 1a 02 00 00    	js     4083fe <dlerror@plt+0x5f3e>
  4081e4:	89 c3                	mov    %eax,%ebx
  4081e6:	0f 85 ef 00 00 00    	jne    4082db <dlerror@plt+0x5e1b>
  4081ec:	4d 8b 6c 24 18       	mov    0x18(%r12),%r13
  4081f1:	4d 85 ed             	test   %r13,%r13
  4081f4:	0f 84 f6 01 00 00    	je     4083f0 <dlerror@plt+0x5f30>
  4081fa:	49 63 6c 24 10       	movslq 0x10(%r12),%rbp
  4081ff:	bf 69 bb 40 00       	mov    $0x40bb69,%edi
  408204:	e8 27 9e ff ff       	call   402030 <getenv@plt>
  408209:	48 89 c7             	mov    %rax,%rdi
  40820c:	48 85 c0             	test   %rax,%rax
  40820f:	74 64                	je     408275 <dlerror@plt+0x5db5>
  408211:	80 38 00             	cmpb   $0x0,(%rax)
  408214:	74 5f                	je     408275 <dlerror@plt+0x5db5>
  408216:	e8 05 a0 ff ff       	call   402220 <__strdup@plt>
  40821b:	48 89 c7             	mov    %rax,%rdi
  40821e:	48 85 c0             	test   %rax,%rax
  408221:	74 52                	je     408275 <dlerror@plt+0x5db5>
  408223:	e8 38 9e ff ff       	call   402060 <free@plt>
  408228:	e8 13 9f ff ff       	call   402140 <getpid@plt>
  40822d:	ba 01 00 00 00       	mov    $0x1,%edx
  408232:	be 20 00 00 00       	mov    $0x20,%esi
  408237:	48 8d 7c 24 10       	lea    0x10(%rsp),%rdi
  40823c:	4c 63 c8             	movslq %eax,%r9
  40823f:	41 b8 74 bb 40 00    	mov    $0x40bb74,%r8d
  408245:	31 c0                	xor    %eax,%eax
  408247:	b9 20 00 00 00       	mov    $0x20,%ecx
  40824c:	e8 ef 9d ff ff       	call   402040 <__snprintf_chk@plt>
  408251:	ba 01 00 00 00       	mov    $0x1,%edx
  408256:	48 8d 74 24 10       	lea    0x10(%rsp),%rsi
  40825b:	bf 69 bb 40 00       	mov    $0x40bb69,%edi
  408260:	e8 cb 9e ff ff       	call   402130 <setenv@plt>
  408265:	85 c0                	test   %eax,%eax
  408267:	74 0c                	je     408275 <dlerror@plt+0x5db5>
  408269:	bf f8 b9 40 00       	mov    $0x40b9f8,%edi
  40826e:	31 c0                	xor    %eax,%eax
  408270:	e8 8b af ff ff       	call   403200 <dlerror@plt+0xd40>
  408275:	41 80 bc 24 42 30 00 	cmpb   $0x0,0x3042(%r12)
  40827c:	00 00 
  40827e:	0f 84 2d 01 00 00    	je     4083b1 <dlerror@plt+0x5ef1>
  408284:	8d 7d 02             	lea    0x2(%rbp),%edi
  408287:	be 08 00 00 00       	mov    $0x8,%esi
  40828c:	4d 8d b4 24 42 30 00 	lea    0x3042(%r12),%r14
  408293:	00 
  408294:	48 63 ff             	movslq %edi,%rdi
  408297:	e8 b4 9f ff ff       	call   402250 <calloc@plt>
  40829c:	48 89 c6             	mov    %rax,%rsi
  40829f:	48 85 c0             	test   %rax,%rax
  4082a2:	0f 84 7b 01 00 00    	je     408423 <dlerror@plt+0x5f63>
  4082a8:	4c 89 30             	mov    %r14,(%rax)
  4082ab:	85 ed                	test   %ebp,%ebp
  4082ad:	7e 1c                	jle    4082cb <dlerror@plt+0x5e0b>
  4082af:	31 c0                	xor    %eax,%eax
  4082b1:	0f 1f 80 00 00 00 00 	nopl   0x0(%rax)
  4082b8:	49 8b 54 c5 00       	mov    0x0(%r13,%rax,8),%rdx
  4082bd:	48 89 54 c6 08       	mov    %rdx,0x8(%rsi,%rax,8)
  4082c2:	48 83 c0 01          	add    $0x1,%rax
  4082c6:	48 39 c5             	cmp    %rax,%rbp
  4082c9:	75 ed                	jne    4082b8 <dlerror@plt+0x5df8>
  4082cb:	4c 89 f7             	mov    %r14,%rdi
  4082ce:	e8 8d a1 ff ff       	call   402460 <execvp@plt>
  4082d3:	85 c0                	test   %eax,%eax
  4082d5:	0f 88 5c 01 00 00    	js     408437 <dlerror@plt+0x5f77>
  4082db:	41 80 bc 24 60 40 00 	cmpb   $0x0,0x4060(%r12)
  4082e2:	00 00 
  4082e4:	bd e0 7b 40 00       	mov    $0x407be0,%ebp
  4082e9:	b8 30 7d 40 00       	mov    $0x407d30,%eax
  4082ee:	41 89 9c 24 44 40 00 	mov    %ebx,0x4044(%r12)
  4082f5:	00 
  4082f6:	48 0f 44 e8          	cmove  %rax,%rbp
  4082fa:	31 db                	xor    %ebx,%ebx
  4082fc:	0f 1f 40 00          	nopl   0x0(%rax)
  408300:	83 fb 11             	cmp    $0x11,%ebx
  408303:	74 0f                	je     408314 <dlerror@plt+0x5e54>
  408305:	83 fb 14             	cmp    $0x14,%ebx
  408308:	74 0a                	je     408314 <dlerror@plt+0x5e54>
  40830a:	48 89 ee             	mov    %rbp,%rsi
  40830d:	89 df                	mov    %ebx,%edi
  40830f:	e8 5c 9f ff ff       	call   402270 <signal@plt>
  408314:	83 c3 01             	add    $0x1,%ebx
  408317:	83 fb 41             	cmp    $0x41,%ebx
  40831a:	75 e4                	jne    408300 <dlerror@plt+0x5e40>
  40831c:	41 8b bc 24 44 40 00 	mov    0x4044(%r12),%edi
  408323:	00 
  408324:	31 d2                	xor    %edx,%edx
  408326:	48 8d 74 24 0c       	lea    0xc(%rsp),%rsi
  40832b:	e8 d0 a0 ff ff       	call   402400 <waitpid@plt>
  408330:	89 c5                	mov    %eax,%ebp
  408332:	85 c0                	test   %eax,%eax
  408334:	78 5e                	js     408394 <dlerror@plt+0x5ed4>
  408336:	31 db                	xor    %ebx,%ebx
  408338:	0f 1f 84 00 00 00 00 	nopl   0x0(%rax,%rax,1)
  40833f:	00 
  408340:	89 df                	mov    %ebx,%edi
  408342:	31 f6                	xor    %esi,%esi
  408344:	83 c3 01             	add    $0x1,%ebx
  408347:	e8 24 9f ff ff       	call   402270 <signal@plt>
  40834c:	83 fb 41             	cmp    $0x41,%ebx
  40834f:	75 ef                	jne    408340 <dlerror@plt+0x5e80>
  408351:	85 ed                	test   %ebp,%ebp
  408353:	78 2d                	js     408382 <dlerror@plt+0x5ec2>
  408355:	8b 44 24 0c          	mov    0xc(%rsp),%eax
  408359:	89 c2                	mov    %eax,%edx
  40835b:	0f b6 c4             	movzbl %ah,%eax
  40835e:	83 e2 7f             	and    $0x7f,%edx
  408361:	74 24                	je     408387 <dlerror@plt+0x5ec7>
  408363:	8d 42 01             	lea    0x1(%rdx),%eax
  408366:	d0 f8                	sar    %al
  408368:	84 c0                	test   %al,%al
  40836a:	0f 9f c0             	setg   %al
  40836d:	0f b6 c0             	movzbl %al,%eax
  408370:	41 89 84 24 48 40 00 	mov    %eax,0x4048(%r12)
  408377:	00 
  408378:	7e 08                	jle    408382 <dlerror@plt+0x5ec2>
  40837a:	41 89 94 24 4c 40 00 	mov    %edx,0x404c(%r12)
  408381:	00 
  408382:	b8 01 00 00 00       	mov    $0x1,%eax
  408387:	48 83 c4 30          	add    $0x30,%rsp
  40838b:	5b                   	pop    %rbx
  40838c:	5d                   	pop    %rbp
  40838d:	41 5c                	pop    %r12
  40838f:	41 5d                	pop    %r13
  408391:	41 5e                	pop    %r14
  408393:	c3                   	ret    
  408394:	e8 d7 9c ff ff       	call   402070 <__errno_location@plt>
  408399:	8b 38                	mov    (%rax),%edi
  40839b:	e8 f0 a0 ff ff       	call   402490 <strerror@plt>
  4083a0:	bf b0 ba 40 00       	mov    $0x40bab0,%edi
  4083a5:	48 89 c6             	mov    %rax,%rsi
  4083a8:	31 c0                	xor    %eax,%eax
  4083aa:	e8 51 ae ff ff       	call   403200 <dlerror@plt+0xd40>
  4083af:	eb 85                	jmp    408336 <dlerror@plt+0x5e76>
  4083b1:	49 8d 7c 24 20       	lea    0x20(%r12),%rdi
  4083b6:	4c 89 ee             	mov    %r13,%rsi
  4083b9:	e8 a2 a0 ff ff       	call   402460 <execvp@plt>
  4083be:	85 c0                	test   %eax,%eax
  4083c0:	0f 89 15 ff ff ff    	jns    4082db <dlerror@plt+0x5e1b>
  4083c6:	e8 a5 9c ff ff       	call   402070 <__errno_location@plt>
  4083cb:	8b 38                	mov    (%rax),%edi
  4083cd:	e8 be a0 ff ff       	call   402490 <strerror@plt>
  4083d2:	bf 88 ba 40 00       	mov    $0x40ba88,%edi
  4083d7:	48 89 c6             	mov    %rax,%rsi
  4083da:	31 c0                	xor    %eax,%eax
  4083dc:	e8 bf ae ff ff       	call   4032a0 <dlerror@plt+0xde0>
  4083e1:	83 cf ff             	or     $0xffffffff,%edi
  4083e4:	e8 87 a0 ff ff       	call   402470 <exit@plt>
  4083e9:	0f 1f 80 00 00 00 00 	nopl   0x0(%rax)
  4083f0:	4d 8b 6c 24 08       	mov    0x8(%r12),%r13
  4083f5:	49 63 2c 24          	movslq (%r12),%rbp
  4083f9:	e9 01 fe ff ff       	jmp    4081ff <dlerror@plt+0x5d3f>
  4083fe:	e8 6d 9c ff ff       	call   402070 <__errno_location@plt>
  408403:	8b 38                	mov    (%rax),%edi
  408405:	e8 86 a0 ff ff       	call   402490 <strerror@plt>
  40840a:	bf c8 b9 40 00       	mov    $0x40b9c8,%edi
  40840f:	48 89 c6             	mov    %rax,%rsi
  408412:	31 c0                	xor    %eax,%eax
  408414:	e8 e7 ad ff ff       	call   403200 <dlerror@plt+0xd40>
  408419:	b8 01 00 00 00       	mov    $0x1,%eax
  40841e:	e9 64 ff ff ff       	jmp    408387 <dlerror@plt+0x5ec7>
  408423:	bf b0 99 40 00       	mov    $0x4099b0,%edi
  408428:	31 c0                	xor    %eax,%eax
  40842a:	e8 71 ae ff ff       	call   4032a0 <dlerror@plt+0xde0>
  40842f:	83 cf ff             	or     $0xffffffff,%edi
  408432:	e8 39 a0 ff ff       	call   402470 <exit@plt>
  408437:	e8 34 9c ff ff       	call   402070 <__errno_location@plt>
  40843c:	8b 38                	mov    (%rax),%edi
  40843e:	e8 4d a0 ff ff       	call   402490 <strerror@plt>
  408443:	bf 58 ba 40 00       	mov    $0x40ba58,%edi
  408448:	48 89 c6             	mov    %rax,%rsi
  40844b:	31 c0                	xor    %eax,%eax
  40844d:	e8 4e ae ff ff       	call   4032a0 <dlerror@plt+0xde0>
  408452:	83 cf ff             	or     $0xffffffff,%edi
  408455:	e8 16 a0 ff ff       	call   402470 <exit@plt>
  40845a:	66 0f 1f 44 00 00    	nopw   0x0(%rax,%rax,1)
  408460:	41 56                	push   %r14
  408462:	41 89 f6             	mov    %esi,%r14d
  408465:	41 55                	push   %r13
  408467:	49 89 fd             	mov    %rdi,%r13
  40846a:	41 54                	push   %r12
  40846c:	55                   	push   %rbp
  40846d:	53                   	push   %rbx
  40846e:	48 89 d3             	mov    %rdx,%rbx
  408471:	c7 47 10 00 00 00 00 	movl   $0x0,0x10(%rdi)
  408478:	8d 7e 01             	lea    0x1(%rsi),%edi
  40847b:	be 08 00 00 00       	mov    $0x8,%esi
  408480:	48 63 ff             	movslq %edi,%rdi
  408483:	e8 c8 9d ff ff       	call   402250 <calloc@plt>
  408488:	49 89 45 18          	mov    %rax,0x18(%r13)
  40848c:	48 85 c0             	test   %rax,%rax
  40848f:	74 69                	je     4084fa <dlerror@plt+0x603a>
  408491:	49 63 ee             	movslq %r14d,%rbp
  408494:	45 31 e4             	xor    %r12d,%r12d
  408497:	45 85 f6             	test   %r14d,%r14d
  40849a:	7e 2e                	jle    4084ca <dlerror@plt+0x600a>
  40849c:	0f 1f 40 00          	nopl   0x0(%rax)
  4084a0:	4a 8b 3c e3          	mov    (%rbx,%r12,8),%rdi
  4084a4:	e8 77 9d ff ff       	call   402220 <__strdup@plt>
  4084a9:	48 85 c0             	test   %rax,%rax
  4084ac:	74 27                	je     4084d5 <dlerror@plt+0x6015>
  4084ae:	49 63 55 10          	movslq 0x10(%r13),%rdx
  4084b2:	49 8b 4d 18          	mov    0x18(%r13),%rcx
  4084b6:	49 83 c4 01          	add    $0x1,%r12
  4084ba:	8d 72 01             	lea    0x1(%rdx),%esi
  4084bd:	41 89 75 10          	mov    %esi,0x10(%r13)
  4084c1:	48 89 04 d1          	mov    %rax,(%rcx,%rdx,8)
  4084c5:	49 39 ec             	cmp    %rbp,%r12
  4084c8:	75 d6                	jne    4084a0 <dlerror@plt+0x5fe0>
  4084ca:	31 c0                	xor    %eax,%eax
  4084cc:	5b                   	pop    %rbx
  4084cd:	5d                   	pop    %rbp
  4084ce:	41 5c                	pop    %r12
  4084d0:	41 5d                	pop    %r13
  4084d2:	41 5e                	pop    %r14
  4084d4:	c3                   	ret    
  4084d5:	e8 96 9b ff ff       	call   402070 <__errno_location@plt>
  4084da:	8b 38                	mov    (%rax),%edi
  4084dc:	e8 af 9f ff ff       	call   402490 <strerror@plt>
  4084e1:	44 89 e6             	mov    %r12d,%esi
  4084e4:	bf 10 bb 40 00       	mov    $0x40bb10,%edi
  4084e9:	48 89 c2             	mov    %rax,%rdx
  4084ec:	31 c0                	xor    %eax,%eax
  4084ee:	e8 ad ad ff ff       	call   4032a0 <dlerror@plt+0xde0>
  4084f3:	b8 ff ff ff ff       	mov    $0xffffffff,%eax
  4084f8:	eb d2                	jmp    4084cc <dlerror@plt+0x600c>
  4084fa:	e8 71 9b ff ff       	call   402070 <__errno_location@plt>
  4084ff:	8b 38                	mov    (%rax),%edi
  408501:	e8 8a 9f ff ff       	call   402490 <strerror@plt>
  408506:	bf e0 ba 40 00       	mov    $0x40bae0,%edi
  40850b:	48 89 c6             	mov    %rax,%rsi
  40850e:	31 c0                	xor    %eax,%eax
  408510:	e8 8b ad ff ff       	call   4032a0 <dlerror@plt+0xde0>
  408515:	83 c8 ff             	or     $0xffffffff,%eax
  408518:	eb b2                	jmp    4084cc <dlerror@plt+0x600c>
  40851a:	66 0f 1f 44 00 00    	nopw   0x0(%rax,%rax,1)
  408520:	55                   	push   %rbp
  408521:	53                   	push   %rbx
  408522:	48 89 fb             	mov    %rdi,%rbx
  408525:	48 89 f7             	mov    %rsi,%rdi
  408528:	48 83 ec 08          	sub    $0x8,%rsp
  40852c:	e8 ef 9c ff ff       	call   402220 <__strdup@plt>
  408531:	48 85 c0             	test   %rax,%rax
  408534:	74 42                	je     408578 <dlerror@plt+0x60b8>
  408536:	48 89 c5             	mov    %rax,%rbp
  408539:	8b 43 10             	mov    0x10(%rbx),%eax
  40853c:	48 8b 7b 18          	mov    0x18(%rbx),%rdi
  408540:	8d 70 02             	lea    0x2(%rax),%esi
  408543:	48 63 f6             	movslq %esi,%rsi
  408546:	48 c1 e6 03          	shl    $0x3,%rsi
  40854a:	e8 61 9e ff ff       	call   4023b0 <realloc@plt>
  40854f:	48 85 c0             	test   %rax,%rax
  408552:	74 29                	je     40857d <dlerror@plt+0x60bd>
  408554:	48 63 53 10          	movslq 0x10(%rbx),%rdx
  408558:	48 89 43 18          	mov    %rax,0x18(%rbx)
  40855c:	8d 4a 01             	lea    0x1(%rdx),%ecx
  40855f:	89 4b 10             	mov    %ecx,0x10(%rbx)
  408562:	48 89 2c d0          	mov    %rbp,(%rax,%rdx,8)
  408566:	48 c7 44 d0 08 00 00 	movq   $0x0,0x8(%rax,%rdx,8)
  40856d:	00 00 
  40856f:	31 c0                	xor    %eax,%eax
  408571:	48 83 c4 08          	add    $0x8,%rsp
  408575:	5b                   	pop    %rbx
  408576:	5d                   	pop    %rbp
  408577:	c3                   	ret    
  408578:	83 c8 ff             	or     $0xffffffff,%eax
  40857b:	eb f4                	jmp    408571 <dlerror@plt+0x60b1>
  40857d:	48 89 ef             	mov    %rbp,%rdi
  408580:	e8 db 9a ff ff       	call   402060 <free@plt>
  408585:	83 c8 ff             	or     $0xffffffff,%eax
  408588:	eb e7                	jmp    408571 <dlerror@plt+0x60b1>
  40858a:	66 0f 1f 44 00 00    	nopw   0x0(%rax,%rax,1)
  408590:	55                   	push   %rbp
  408591:	48 89 fd             	mov    %rdi,%rbp
  408594:	53                   	push   %rbx
  408595:	48 83 ec 08          	sub    $0x8,%rsp
  408599:	8b 47 10             	mov    0x10(%rdi),%eax
  40859c:	85 c0                	test   %eax,%eax
  40859e:	7e 1e                	jle    4085be <dlerror@plt+0x60fe>
  4085a0:	31 db                	xor    %ebx,%ebx
  4085a2:	66 0f 1f 44 00 00    	nopw   0x0(%rax,%rax,1)
  4085a8:	48 8b 45 18          	mov    0x18(%rbp),%rax
  4085ac:	48 8b 3c d8          	mov    (%rax,%rbx,8),%rdi
  4085b0:	48 83 c3 01          	add    $0x1,%rbx
  4085b4:	e8 a7 9a ff ff       	call   402060 <free@plt>
  4085b9:	39 5d 10             	cmp    %ebx,0x10(%rbp)
  4085bc:	7f ea                	jg     4085a8 <dlerror@plt+0x60e8>
  4085be:	48 8b 7d 18          	mov    0x18(%rbp),%rdi
  4085c2:	e8 99 9a ff ff       	call   402060 <free@plt>
  4085c7:	c7 45 10 00 00 00 00 	movl   $0x0,0x10(%rbp)
  4085ce:	48 c7 45 18 00 00 00 	movq   $0x0,0x18(%rbp)
  4085d5:	00 
  4085d6:	48 83 c4 08          	add    $0x8,%rsp
  4085da:	5b                   	pop    %rbx
  4085db:	5d                   	pop    %rbp
  4085dc:	c3                   	ret    
  4085dd:	0f 1f 00             	nopl   (%rax)
  4085e0:	41 55                	push   %r13
  4085e2:	49 89 f5             	mov    %rsi,%r13
  4085e5:	be 08 00 00 00       	mov    $0x8,%esi
  4085ea:	41 54                	push   %r12
  4085ec:	55                   	push   %rbp
  4085ed:	48 89 d5             	mov    %rdx,%rbp
  4085f0:	53                   	push   %rbx
  4085f1:	89 fb                	mov    %edi,%ebx
  4085f3:	83 c7 02             	add    $0x2,%edi
  4085f6:	48 63 ff             	movslq %edi,%rdi
  4085f9:	48 83 ec 08          	sub    $0x8,%rsp
  4085fd:	e8 4e 9c ff ff       	call   402250 <calloc@plt>
  408602:	49 89 c4             	mov    %rax,%r12
  408605:	48 85 c0             	test   %rax,%rax
  408608:	74 1a                	je     408624 <dlerror@plt+0x6164>
  40860a:	48 89 28             	mov    %rbp,(%rax)
  40860d:	85 db                	test   %ebx,%ebx
  40860f:	7e 13                	jle    408624 <dlerror@plt+0x6164>
  408611:	48 63 d3             	movslq %ebx,%rdx
  408614:	48 8d 78 08          	lea    0x8(%rax),%rdi
  408618:	4c 89 ee             	mov    %r13,%rsi
  40861b:	48 c1 e2 03          	shl    $0x3,%rdx
  40861f:	e8 9c 9c ff ff       	call   4022c0 <memcpy@plt>
  408624:	48 83 c4 08          	add    $0x8,%rsp
  408628:	4c 89 e0             	mov    %r12,%rax
  40862b:	5b                   	pop    %rbx
  40862c:	5d                   	pop    %rbp
  40862d:	41 5c                	pop    %r12
  40862f:	41 5d                	pop    %r13
  408631:	c3                   	ret    
  408632:	66 2e 0f 1f 84 00 00 	cs nopw 0x0(%rax,%rax,1)
  408639:	00 00 00 
  40863c:	0f 1f 40 00          	nopl   0x0(%rax)
  408640:	41 57                	push   %r15
  408642:	41 89 ff             	mov    %edi,%r15d
  408645:	41 56                	push   %r14
  408647:	49 89 f6             	mov    %rsi,%r14
  40864a:	41 55                	push   %r13
  40864c:	49 89 d5             	mov    %rdx,%r13
  40864f:	41 54                	push   %r12
  408651:	4c 8d 25 90 67 00 00 	lea    0x6790(%rip),%r12        # 40ede8 <dlerror@plt+0xc928>
  408658:	55                   	push   %rbp
  408659:	48 8d 2d 90 67 00 00 	lea    0x6790(%rip),%rbp        # 40edf0 <dlerror@plt+0xc930>
  408660:	53                   	push   %rbx
  408661:	4c 29 e5             	sub    %r12,%rbp
  408664:	31 db                	xor    %ebx,%ebx
  408666:	48 c1 fd 03          	sar    $0x3,%rbp
  40866a:	48 83 ec 08          	sub    $0x8,%rsp
  40866e:	e8 8d 99 ff ff       	call   402000 <getenv@plt-0x30>
  408673:	48 85 ed             	test   %rbp,%rbp
  408676:	74 1e                	je     408696 <dlerror@plt+0x61d6>
  408678:	0f 1f 84 00 00 00 00 	nopl   0x0(%rax,%rax,1)
  40867f:	00 
  408680:	4c 89 ea             	mov    %r13,%rdx
  408683:	4c 89 f6             	mov    %r14,%rsi
  408686:	44 89 ff             	mov    %r15d,%edi
  408689:	41 ff 14 dc          	call   *(%r12,%rbx,8)
  40868d:	48 83 c3 01          	add    $0x1,%rbx
  408691:	48 39 eb             	cmp    %rbp,%rbx
  408694:	75 ea                	jne    408680 <dlerror@plt+0x61c0>
  408696:	48 83 c4 08          	add    $0x8,%rsp
  40869a:	5b                   	pop    %rbx
  40869b:	5d                   	pop    %rbp
  40869c:	41 5c                	pop    %r12
  40869e:	41 5d                	pop    %r13
  4086a0:	41 5e                	pop    %r14
  4086a2:	41 5f                	pop    %r15
  4086a4:	c3                   	ret    
  4086a5:	90                   	nop
  4086a6:	66 2e 0f 1f 84 00 00 	cs nopw 0x0(%rax,%rax,1)
  4086ad:	00 00 00 
  4086b0:	f3 c3                	repz ret 

Disassembly of section .fini:

00000000004086b4 <.fini>:
  4086b4:	48 83 ec 08          	sub    $0x8,%rsp
  4086b8:	48 83 c4 08          	add    $0x8,%rsp
  4086bc:	c3                   	ret    
